(dp0
S'METTS MARK'
p1
(dp2
S'to_messages'
p3
F807.0
sS'deferral_payments'
p4
S'NaN'
p5
sS'expenses'
p6
F94299.0
sS'poi'
p7
I00
sVneed
p8
I0
sS'long_term_incentive'
p9
S'NaN'
p10
sS'deferred_income'
p11
S'NaN'
p12
sVthing
p13
I0
sS'from_messages'
p14
F29.0
sS'other'
p15
F1740.0
sVholiday
p16
I1
sVfax
p17
I0
sS'bonus'
p18
F600000.0
sS'total_stock_value'
p19
F585062.0
sVvolume
p20
I0
sVnews
p21
I0
sS'restricted_stock'
p22
F585062.0
sS'salary'
p23
F365788.0
sVresource
p24
I0
sS'total_payments'
p25
F1061827.0
sVsale
p26
I2
sS'exercised_stock_options'
p27
S'NaN'
p28
sVperson
p29
I2
sVbudget
p30
I0
ssS'BAXTER JOHN C'
p31
(dp32
g3
S'NaN'
p33
sg4
F1295738.0
sg6
F11200.0
sg7
I00
sg8
I0
sg9
F1586055.0
sS'email_address'
p34
S'NaN'
p35
sg11
F-1386055.0
sg13
I0
sg14
S'NaN'
p36
sg15
F2660303.0
sg16
I0
sg17
I0
sg18
F1200000.0
sg19
F10623258.0
sg20
I0
sg21
I0
sg22
F3942714.0
sg23
F267102.0
sg24
I0
sg25
F5634343.0
sg26
I0
sg27
F6680544.0
sg29
I0
sg30
I0
ssS'ELLIOTT STEVEN'
p37
(dp38
g3
g33
sg4
g5
sg6
F78552.0
sg7
I00
sg8
I0
sg9
g10
sg34
S'steven.elliott@enron.com'
p39
sg11
F-400729.0
sg13
I0
sg14
g36
sg15
F12961.0
sg16
I0
sg17
I0
sg18
F350000.0
sg19
F6678735.0
sg20
I0
sg21
I0
sg22
F1788391.0
sg23
F170941.0
sg24
I0
sg25
F211725.0
sg26
I0
sg27
F4890344.0
sg29
I0
sg30
I0
ssS'CORDES WILLIAM R'
p40
(dp41
g3
F764.0
sg4
g5
sg6
S'NaN'
p42
sg7
I00
sg8
I1
sg9
g10
sg11
g12
sg13
I0
sg14
F12.0
sg15
S'NaN'
p43
sg16
I0
sg17
I0
sg18
S'NaN'
p44
sg19
F1038185.0
sg20
I0
sg21
I0
sg22
F386335.0
sg23
S'NaN'
p45
sg24
I0
sg25
S'NaN'
p46
sg26
I0
sg27
F651850.0
sg29
I0
sg30
I0
ssS'HANNON KEVIN P'
p47
(dp48
g3
F1045.0
sg4
g5
sg6
F34039.0
sg7
I01
sg8
I0
sg9
F1617011.0
sg11
F-3117011.0
sg13
I0
sg14
F32.0
sg15
F11350.0
sg16
I2
sg17
I0
sg18
F1500000.0
sg19
F6391065.0
sg20
I1
sg21
I0
sg22
F853064.0
sg23
F243293.0
sg24
I0
sg25
F288682.0
sg26
I0
sg27
F5538001.0
sg29
I1
sg30
I0
ssS'MORDAUNT KRISTINA M'
p49
(dp50
g3
g33
sg4
g5
sg6
F35018.0
sg7
I00
sg8
I0
sg9
g10
sg34
S'kristina.mordaunt@enron.com'
p51
sg11
g12
sg13
I0
sg14
g36
sg15
F1411.0
sg16
I0
sg17
I0
sg18
F325000.0
sg19
F208510.0
sg20
I0
sg21
I0
sg22
F208510.0
sg23
F267093.0
sg24
I0
sg25
F628522.0
sg26
I0
sg27
g28
sg29
I0
sg30
I0
ssS'MEYER ROCKFORD G'
p52
(dp53
g3
F232.0
sg4
F1848227.0
sg6
g42
sg7
I00
sg8
I0
sg9
g10
sg11
g12
sg13
I0
sg14
F28.0
sg15
g43
sg16
I0
sg17
I0
sg18
g44
sg19
F955873.0
sg20
I0
sg21
I0
sg22
F462384.0
sg23
g45
sg24
I0
sg25
F1848227.0
sg26
I0
sg27
F493489.0
sg29
I1
sg30
I0
ssS'MCMAHON JEFFREY'
p54
(dp55
g3
F2355.0
sg4
g5
sg6
F137108.0
sg7
I00
sg8
I0
sg9
F694862.0
sg11
g12
sg13
I0
sg14
F48.0
sg15
F297353.0
sg16
I0
sg17
I0
sg18
F2600000.0
sg19
F1662855.0
sg20
I0
sg21
I0
sg22
F558801.0
sg23
F370448.0
sg24
I0
sg25
F4099771.0
sg26
I0
sg27
F1104054.0
sg29
I0
sg30
I0
ssS'HORTON STANLEY C'
p56
(dp57
g3
F2350.0
sg4
F3131860.0
sg6
g42
sg7
I00
sg8
I0
sg9
g10
sg11
g12
sg13
I0
sg14
F1073.0
sg15
g43
sg16
I0
sg17
I0
sg18
g44
sg19
F7256648.0
sg20
I0
sg21
I0
sg22
F2046079.0
sg23
g45
sg24
I0
sg25
F3131860.0
sg26
I0
sg27
F5210569.0
sg29
I0
sg30
I0
ssS'PIPER GREGORY F'
p58
(dp59
g3
F1238.0
sg4
F1130036.0
sg6
F43057.0
sg7
I00
sg8
I1
sg9
g10
sg11
F-33333.0
sg13
I1
sg14
F222.0
sg15
F778.0
sg16
I0
sg17
I0
sg18
F400000.0
sg19
F880290.0
sg20
I0
sg21
I0
sg22
F409554.0
sg23
F197091.0
sg24
I0
sg25
F1737629.0
sg26
I0
sg27
F880290.0
sg29
I0
sg30
I1
ssS'HUMPHREY GENE E'
p60
(dp61
g3
F128.0
sg4
F2964506.0
sg6
F4994.0
sg7
I00
sg8
I0
sg9
g10
sg11
g12
sg13
I0
sg14
F17.0
sg15
g43
sg16
I0
sg17
I0
sg18
g44
sg19
F2282768.0
sg20
I0
sg21
I0
sg22
S'NaN'
p62
sg23
F130724.0
sg24
I0
sg25
F3100224.0
sg26
I0
sg27
F2282768.0
sg29
I0
sg30
I0
ssS'UMANOFF ADAM S'
p63
(dp64
g3
F111.0
sg4
g5
sg6
F53122.0
sg7
I00
sg8
I0
sg9
g10
sg11
g12
sg13
I0
sg14
F18.0
sg15
g43
sg16
I0
sg17
I0
sg18
F788750.0
sg19
S'NaN'
p65
sg20
I0
sg21
I0
sg22
g62
sg23
F288589.0
sg24
I1
sg25
F1130461.0
sg26
I0
sg27
g28
sg29
I0
sg30
I0
ssS'BLACHMAN JEREMY M'
p66
(dp67
g3
F2475.0
sg4
g5
sg6
F84208.0
sg7
I00
sg8
I1
sg9
F831809.0
sg11
g12
sg13
I0
sg14
F14.0
sg15
F272.0
sg16
I0
sg17
I0
sg18
F850000.0
sg19
F954354.0
sg20
I0
sg21
I0
sg22
F189041.0
sg23
F248546.0
sg24
I0
sg25
F2014835.0
sg26
I0
sg27
F765313.0
sg29
I0
sg30
I0
ssS'SUNDE MARTIN'
p68
(dp69
g3
F2647.0
sg4
g5
sg6
g42
sg7
I00
sg8
I0
sg9
F476451.0
sg11
g12
sg13
I0
sg14
F38.0
sg15
F111122.0
sg16
I0
sg17
I0
sg18
F700000.0
sg19
F698920.0
sg20
I0
sg21
I0
sg22
F698920.0
sg23
F257486.0
sg24
I0
sg25
F1545059.0
sg26
I0
sg27
g28
sg29
I0
sg30
I0
ssS'GIBBS DANA R'
p70
(dp71
g3
F169.0
sg4
F504610.0
sg6
g42
sg7
I00
sg8
I0
sg9
F461912.0
sg11
g12
sg13
I2
sg14
F12.0
sg15
g43
sg16
I0
sg17
I0
sg18
g44
sg19
F2218275.0
sg20
I0
sg21
I2
sg22
g62
sg23
g45
sg24
I0
sg25
F966522.0
sg26
I1
sg27
F2218275.0
sg29
I0
sg30
I0
ssS'LOWRY CHARLES P'
p72
(dp73
g3
g33
sg4
g5
sg6
g42
sg7
I00
sg8
I0
sg9
g10
sg34
g35
sg11
g12
sg13
I0
sg14
g36
sg15
g43
sg16
I0
sg17
I0
sg18
g44
sg19
F372205.0
sg20
I0
sg21
I0
sg22
F153686.0
sg23
g45
sg24
I0
sg25
g46
sg26
I0
sg27
F372205.0
sg29
I0
sg30
I0
ssS'COLWELL WESLEY'
p74
(dp75
g3
F1758.0
sg4
F27610.0
sg6
F16514.0
sg7
I01
sg8
I0
sg9
g10
sg11
F-144062.0
sg13
I0
sg14
F40.0
sg15
F101740.0
sg16
I0
sg17
I0
sg18
F1200000.0
sg19
F698242.0
sg20
I0
sg21
I1
sg22
F698242.0
sg23
F288542.0
sg24
I0
sg25
F1490344.0
sg26
I1
sg27
g28
sg29
I0
sg30
I2
ssS'MULLER MARK S'
p76
(dp77
g3
F136.0
sg4
F842924.0
sg6
g42
sg7
I00
sg8
I0
sg9
F1725545.0
sg11
F-719000.0
sg13
I1
sg14
F16.0
sg15
F947.0
sg16
I0
sg17
I0
sg18
F1100000.0
sg19
F1416848.0
sg20
I0
sg21
I0
sg22
F360528.0
sg23
F251654.0
sg24
I0
sg25
F3202070.0
sg26
I0
sg27
F1056320.0
sg29
I0
sg30
I0
ssS'JACKSON CHARLENE R'
p78
(dp79
g3
F258.0
sg4
g5
sg6
F10181.0
sg7
I00
sg8
I0
sg9
g10
sg11
g12
sg13
I0
sg14
F56.0
sg15
F2435.0
sg16
I0
sg17
I0
sg18
F250000.0
sg19
F725735.0
sg20
I0
sg21
I0
sg22
F540672.0
sg23
F288558.0
sg24
I0
sg25
F551174.0
sg26
I0
sg27
F185063.0
sg29
I0
sg30
I1
ssS'WESTFAHL RICHARD K'
p80
(dp81
g3
g33
sg4
g5
sg6
F51870.0
sg7
I00
sg8
I0
sg9
F256191.0
sg34
S'dick.westfahl@enron.com'
p82
sg11
F-10800.0
sg13
I0
sg14
g36
sg15
F401130.0
sg16
I0
sg17
I0
sg18
g44
sg19
F384930.0
sg20
I0
sg21
I0
sg22
F384930.0
sg23
F63744.0
sg24
I0
sg25
F762135.0
sg26
I0
sg27
g28
sg29
I0
sg30
I0
ssS'WALTERS GARETH W'
p83
(dp84
g3
g33
sg4
F53625.0
sg6
F33785.0
sg7
I00
sg8
I0
sg9
g10
sg34
g35
sg11
g12
sg13
I0
sg14
g36
sg15
g43
sg16
I0
sg17
I0
sg18
g44
sg19
F1030329.0
sg20
I0
sg21
I0
sg22
g62
sg23
g45
sg24
I0
sg25
F87410.0
sg26
I0
sg27
F1030329.0
sg29
I0
sg30
I0
ssS'WALLS JR ROBERT H'
p85
(dp86
g3
F671.0
sg4
g5
sg6
F50936.0
sg7
I00
sg8
I1
sg9
F540751.0
sg11
g12
sg13
I0
sg14
F146.0
sg15
F2.0
sg16
I0
sg17
I0
sg18
F850000.0
sg19
F5898997.0
sg20
I0
sg21
I1
sg22
F1552453.0
sg23
F357091.0
sg24
I0
sg25
F1798780.0
sg26
I0
sg27
F4346544.0
sg29
I0
sg30
I0
ssS'KITCHEN LOUISE'
p87
(dp88
g3
F8305.0
sg4
g5
sg6
F5774.0
sg7
I00
sg8
I1
sg9
g10
sg11
g12
sg13
I0
sg14
F1728.0
sg15
F93925.0
sg16
I0
sg17
I1
sg18
F3100000.0
sg19
F547143.0
sg20
I1
sg21
I0
sg22
F466101.0
sg23
F271442.0
sg24
I0
sg25
F3471141.0
sg26
I1
sg27
F81042.0
sg29
I0
sg30
I0
ssS'CHAN RONNIE'
p89
(dp90
g3
g33
sg4
g5
sg6
g42
sg7
I00
sg8
I0
sg9
g10
sg34
g35
sg11
F-98784.0
sg13
I0
sg14
g36
sg15
g43
sg16
I0
sg17
I0
sg18
g44
sg19
g65
sg20
I0
sg21
I0
sg22
F32460.0
sg23
g45
sg24
I0
sg25
g46
sg26
I0
sg27
g28
sg29
I0
sg30
I0
ssS'BELFER ROBERT'
p91
(dp92
g3
g33
sg4
F-102500.0
sg6
g42
sg7
I00
sg8
I0
sg9
g10
sg34
g35
sg11
g12
sg13
I0
sg14
g36
sg15
g43
sg16
I0
sg17
I0
sg18
g44
sg19
F-44093.0
sg20
I0
sg21
I0
sg22
g62
sg23
g45
sg24
I0
sg25
F102500.0
sg26
I0
sg27
F3285.0
sg29
I0
sg30
I0
ssS'SHANKMAN JEFFREY A'
p93
(dp94
g3
F3221.0
sg4
g5
sg6
F178979.0
sg7
I00
sg8
I0
sg9
F554422.0
sg11
g12
sg13
I0
sg14
F2681.0
sg15
F1191.0
sg16
I0
sg17
I0
sg18
F2000000.0
sg19
F2072035.0
sg20
I1
sg21
I0
sg22
F630137.0
sg23
F304110.0
sg24
I0
sg25
F3038702.0
sg26
I0
sg27
F1441898.0
sg29
I0
sg30
I0
ssS'WODRASKA JOHN'
p95
(dp96
g3
g33
sg4
g5
sg6
g42
sg7
I00
sg8
I0
sg9
g10
sg34
S'john.wodraska@enron.com'
p97
sg11
g12
sg13
I0
sg14
g36
sg15
F189583.0
sg16
I0
sg17
I0
sg18
g44
sg19
g65
sg20
I0
sg21
I0
sg22
g62
sg23
g45
sg24
I0
sg25
F189583.0
sg26
I0
sg27
g28
sg29
I0
sg30
I0
ssS'BERGSIEKER RICHARD P'
p98
(dp99
g3
F383.0
sg4
g5
sg6
F59175.0
sg7
I00
sg8
I1
sg9
F180250.0
sg11
F-485813.0
sg13
I0
sg14
F59.0
sg15
F427316.0
sg16
I0
sg17
I0
sg18
F250000.0
sg19
F659249.0
sg20
I0
sg21
I1
sg22
F659249.0
sg23
F187922.0
sg24
I0
sg25
F618850.0
sg26
I0
sg27
g28
sg29
I1
sg30
I0
ssS'URQUHART JOHN A'
p100
(dp101
g3
g33
sg4
g5
sg6
F228656.0
sg7
I00
sg8
I0
sg9
g10
sg34
g35
sg11
F-36666.0
sg13
I0
sg14
g36
sg15
g43
sg16
I0
sg17
I0
sg18
g44
sg19
g65
sg20
I0
sg21
I0
sg22
g62
sg23
g45
sg24
I0
sg25
F228656.0
sg26
I0
sg27
g28
sg29
I0
sg30
I0
ssS'BIBI PHILIPPE A'
p102
(dp103
g3
F1607.0
sg4
g5
sg6
F38559.0
sg7
I00
sg8
I0
sg9
F369721.0
sg11
g12
sg13
I0
sg14
F40.0
sg15
F425688.0
sg16
I1
sg17
I0
sg18
F1000000.0
sg19
F1843816.0
sg20
I1
sg21
I0
sg22
F378082.0
sg23
F213625.0
sg24
I0
sg25
F2047593.0
sg26
I0
sg27
F1465734.0
sg29
I0
sg30
I0
ssS'RIEKER PAULA H'
p104
(dp105
g3
F1328.0
sg4
F214678.0
sg6
F33271.0
sg7
I01
sg8
I0
sg9
g10
sg11
F-100000.0
sg13
I0
sg14
F82.0
sg15
F1950.0
sg16
I0
sg17
I0
sg18
F700000.0
sg19
F1918887.0
sg20
I0
sg21
I0
sg22
F283649.0
sg23
F249201.0
sg24
I1
sg25
F1099100.0
sg26
I1
sg27
F1635238.0
sg29
I0
sg30
I0
ssS'WHALEY DAVID A'
p106
(dp107
g3
g33
sg4
g5
sg6
g42
sg7
I00
sg8
I0
sg9
g10
sg34
g35
sg11
g12
sg13
I0
sg14
g36
sg15
g43
sg16
I0
sg17
I0
sg18
g44
sg19
F98718.0
sg20
I0
sg21
I0
sg22
g62
sg23
g45
sg24
I0
sg25
g46
sg26
I0
sg27
F98718.0
sg29
I0
sg30
I0
ssS'BECK SALLY W'
p108
(dp109
g3
F7315.0
sg4
g5
sg6
F37172.0
sg7
I00
sg8
I0
sg9
g10
sg11
g12
sg13
I0
sg14
F4343.0
sg15
F566.0
sg16
I0
sg17
I0
sg18
F700000.0
sg19
F126027.0
sg20
I0
sg21
I0
sg22
F126027.0
sg23
F231330.0
sg24
I1
sg25
F969068.0
sg26
I0
sg27
g28
sg29
I1
sg30
I0
ssS'HAUG DAVID L'
p110
(dp111
g3
F573.0
sg4
g5
sg6
F475.0
sg7
I00
sg8
I0
sg9
g10
sg11
g12
sg13
I0
sg14
F19.0
sg15
g43
sg16
I0
sg17
I0
sg18
g44
sg19
F2217299.0
sg20
I0
sg21
I0
sg22
F2217299.0
sg23
g45
sg24
I0
sg25
F475.0
sg26
I0
sg27
g28
sg29
I0
sg30
I0
ssS'ECHOLS JOHN B'
p112
(dp113
g3
g33
sg4
g5
sg6
F21530.0
sg7
I00
sg8
I0
sg9
F2234774.0
sg34
S'john.echols@enron.com'
p114
sg11
g12
sg13
I0
sg14
g36
sg15
F53775.0
sg16
I0
sg17
I0
sg18
F200000.0
sg19
F1008941.0
sg20
I0
sg21
I0
sg22
F407503.0
sg23
F182245.0
sg24
I0
sg25
F2692324.0
sg26
I0
sg27
F601438.0
sg29
I0
sg30
I0
ssS'MENDELSOHN JOHN'
p115
(dp116
g3
g33
sg4
g5
sg6
F148.0
sg7
I00
sg8
I0
sg9
g10
sg34
g35
sg11
F-103750.0
sg13
I0
sg14
g36
sg15
g43
sg16
I0
sg17
I0
sg18
g44
sg19
g65
sg20
I0
sg21
I0
sg22
g62
sg23
g45
sg24
I0
sg25
F148.0
sg26
I0
sg27
g28
sg29
I0
sg30
I0
ssS'HICKERSON GARY J'
p117
(dp118
g3
F1320.0
sg4
g5
sg6
F98849.0
sg7
I00
sg8
I1
sg9
F69223.0
sg11
g12
sg13
I0
sg14
F27.0
sg15
F1936.0
sg16
I0
sg17
I0
sg18
F1700000.0
sg19
F441096.0
sg20
I0
sg21
I1
sg22
F441096.0
sg23
F211788.0
sg24
I1
sg25
F2081796.0
sg26
I0
sg27
g28
sg29
I0
sg30
I0
ssS'CLINE KENNETH W'
p119
(dp120
g3
g33
sg4
g5
sg6
g42
sg7
I00
sg8
I0
sg9
g10
sg34
g35
sg11
g12
sg13
I0
sg14
g36
sg15
g43
sg16
I0
sg17
I0
sg18
g44
sg19
F189518.0
sg20
I0
sg21
I0
sg22
F662086.0
sg23
g45
sg24
I0
sg25
g46
sg26
I0
sg27
g28
sg29
I0
sg30
I0
ssS'LEWIS RICHARD'
p121
(dp122
g3
F952.0
sg4
g5
sg6
g42
sg7
I00
sg8
I0
sg9
g10
sg11
g12
sg13
I0
sg14
F26.0
sg15
g43
sg16
I0
sg17
I1
sg18
g44
sg19
F850477.0
sg20
I0
sg21
I0
sg22
g62
sg23
g45
sg24
I0
sg25
g46
sg26
I0
sg27
F850477.0
sg29
I0
sg30
I0
ssS'HAYES ROBERT E'
p123
(dp124
g3
F504.0
sg4
F7961.0
sg6
g42
sg7
I00
sg8
I0
sg9
g10
sg11
g12
sg13
I0
sg14
F12.0
sg15
g43
sg16
I0
sg17
I0
sg18
g44
sg19
F151418.0
sg20
I0
sg21
I0
sg22
F151418.0
sg23
g45
sg24
I0
sg25
F7961.0
sg26
I0
sg27
g28
sg29
I0
sg30
I0
ssS'MCCARTY DANNY J'
p125
(dp126
g3
F1433.0
sg4
g5
sg6
g42
sg7
I00
sg8
I0
sg9
g10
sg11
g12
sg13
I1
sg14
F215.0
sg15
g43
sg16
I0
sg17
I0
sg18
g44
sg19
F758931.0
sg20
I0
sg21
I0
sg22
F94556.0
sg23
g45
sg24
I0
sg25
g46
sg26
I1
sg27
F664375.0
sg29
I0
sg30
I0
ssS'KOPPER MICHAEL J'
p127
(dp128
g3
g33
sg4
g5
sg6
F118134.0
sg7
I01
sg8
I0
sg9
F602671.0
sg34
S'michael.kopper@enron.com'
p129
sg11
g12
sg13
I0
sg14
g36
sg15
F907502.0
sg16
I0
sg17
I0
sg18
F800000.0
sg19
F985032.0
sg20
I0
sg21
I0
sg22
F985032.0
sg23
F224305.0
sg24
I0
sg25
F2652612.0
sg26
I0
sg27
g28
sg29
I0
sg30
I0
ssS'LEFF DANIEL P'
p130
(dp131
g3
F2822.0
sg4
g5
sg6
g42
sg7
I00
sg8
I1
sg9
F1387399.0
sg11
g12
sg13
I0
sg14
F63.0
sg15
F3083.0
sg16
I0
sg17
I0
sg18
F1000000.0
sg19
F360528.0
sg20
I0
sg21
I0
sg22
F360528.0
sg23
F273746.0
sg24
I0
sg25
F2664228.0
sg26
I0
sg27
g28
sg29
I0
sg30
I1
ssS'LAVORATO JOHN J'
p132
(dp133
g3
F7259.0
sg4
g5
sg6
F49537.0
sg7
I00
sg8
I1
sg9
F2035380.0
sg11
g12
sg13
I0
sg14
F2585.0
sg15
F1552.0
sg16
I0
sg17
I0
sg18
F8000000.0
sg19
F5167144.0
sg20
I1
sg21
I0
sg22
F1008149.0
sg23
F339288.0
sg24
I0
sg25
F10425757.0
sg26
I0
sg27
F4158995.0
sg29
I0
sg30
I0
ssS'BERBERIAN DAVID'
p134
(dp135
g3
g33
sg4
g5
sg6
F11892.0
sg7
I00
sg8
I0
sg9
g10
sg34
S'david.berberian@enron.com'
p136
sg11
g12
sg13
I0
sg14
g36
sg15
g43
sg16
I0
sg17
I0
sg18
g44
sg19
F2493616.0
sg20
I0
sg21
I0
sg22
F869220.0
sg23
F216582.0
sg24
I0
sg25
F228474.0
sg26
I0
sg27
F1624396.0
sg29
I0
sg30
I0
ssS'DETMERING TIMOTHY J'
p137
(dp138
g3
g33
sg4
F875307.0
sg6
F52255.0
sg7
I00
sg8
I0
sg9
F415657.0
sg34
S'timothy.detmering@enron.com'
p139
sg11
F-775241.0
sg13
I0
sg14
g36
sg15
F1105.0
sg16
I0
sg17
I0
sg18
F425000.0
sg19
F2027865.0
sg20
I0
sg21
I0
sg22
F315068.0
sg23
F210500.0
sg24
I0
sg25
F1204583.0
sg26
I0
sg27
F2027865.0
sg29
I0
sg30
I0
ssS'WAKEHAM JOHN'
p140
(dp141
g3
g33
sg4
g5
sg6
F103773.0
sg7
I00
sg8
I0
sg9
g10
sg34
g35
sg11
g12
sg13
I0
sg14
g36
sg15
g43
sg16
I0
sg17
I0
sg18
g44
sg19
g65
sg20
I0
sg21
I0
sg22
g62
sg23
g45
sg24
I0
sg25
F213071.0
sg26
I0
sg27
g28
sg29
I0
sg30
I0
ssS'POWERS WILLIAM'
p142
(dp143
g3
F653.0
sg4
g5
sg6
g42
sg7
I00
sg8
I0
sg9
g10
sg11
F-17500.0
sg13
I1
sg14
F26.0
sg15
g43
sg16
I0
sg17
I0
sg18
g44
sg19
g65
sg20
I0
sg21
I0
sg22
g62
sg23
g45
sg24
I0
sg25
g46
sg26
I0
sg27
g28
sg29
I0
sg30
I0
ssS'GOLD JOSEPH'
p144
(dp145
g3
g33
sg4
g5
sg6
g42
sg7
I00
sg8
I0
sg9
F304805.0
sg34
S'joe.gold@enron.com'
p146
sg11
g12
sg13
I0
sg14
g36
sg15
F819288.0
sg16
I0
sg17
I0
sg18
F750000.0
sg19
F877611.0
sg20
I0
sg21
I0
sg22
F441096.0
sg23
F272880.0
sg24
I0
sg25
F2146973.0
sg26
I0
sg27
F436515.0
sg29
I0
sg30
I0
ssS'BANNANTINE JAMES M'
p147
(dp148
g3
F566.0
sg4
g5
sg6
F56301.0
sg7
I00
sg8
I0
sg9
g10
sg11
F-5104.0
sg13
I0
sg14
F29.0
sg15
F864523.0
sg16
I0
sg17
I0
sg18
g44
sg19
F5243487.0
sg20
I0
sg21
I0
sg22
F1757552.0
sg23
F477.0
sg24
I0
sg25
F916197.0
sg26
I0
sg27
F4046157.0
sg29
I0
sg30
I0
ssS'DUNCAN JOHN H'
p149
(dp150
g3
g33
sg4
g5
sg6
g42
sg7
I00
sg8
I0
sg9
g10
sg34
g35
sg11
F-25000.0
sg13
I0
sg14
g36
sg15
g43
sg16
I0
sg17
I0
sg18
g44
sg19
F371750.0
sg20
I0
sg21
I0
sg22
g62
sg23
g45
sg24
I0
sg25
F77492.0
sg26
I0
sg27
F371750.0
sg29
I0
sg30
I0
ssS'SHAPIRO RICHARD S'
p151
(dp152
g3
F15149.0
sg4
g5
sg6
F137767.0
sg7
I00
sg8
I0
sg9
g10
sg11
g12
sg13
I0
sg14
F1215.0
sg15
F705.0
sg16
I0
sg17
I0
sg18
F650000.0
sg19
F987001.0
sg20
I0
sg21
I2
sg22
F379164.0
sg23
F269076.0
sg24
I1
sg25
F1057548.0
sg26
I1
sg27
F607837.0
sg29
I0
sg30
I1
ssS'SHERRIFF JOHN R'
p153
(dp154
g3
F3187.0
sg4
g5
sg6
g42
sg7
I00
sg8
I0
sg9
F554422.0
sg11
g12
sg13
I2
sg14
F92.0
sg15
F1852186.0
sg16
I0
sg17
I0
sg18
F1500000.0
sg19
F3128982.0
sg20
I1
sg21
I2
sg22
F1293424.0
sg23
F428780.0
sg24
I0
sg25
F4335388.0
sg26
I1
sg27
F1835558.0
sg29
I0
sg30
I0
ssS'SHELBY REX'
p155
(dp156
g3
F225.0
sg4
g5
sg6
F22884.0
sg7
I01
sg8
I0
sg9
g10
sg11
F-4167.0
sg13
I1
sg14
F39.0
sg15
F1573324.0
sg16
I0
sg17
I0
sg18
F200000.0
sg19
F2493616.0
sg20
I0
sg21
I0
sg22
F869220.0
sg23
F211844.0
sg24
I0
sg25
F2003885.0
sg26
I0
sg27
F1624396.0
sg29
I0
sg30
I0
ssS'LEMAISTRE CHARLES'
p157
(dp158
g3
g33
sg4
g5
sg6
g42
sg7
I00
sg8
I0
sg9
g10
sg34
g35
sg11
F-25000.0
sg13
I0
sg14
g36
sg15
g43
sg16
I0
sg17
I0
sg18
g44
sg19
F412878.0
sg20
I0
sg21
I0
sg22
g62
sg23
g45
sg24
I0
sg25
F87492.0
sg26
I0
sg27
F412878.0
sg29
I0
sg30
I0
ssS'DEFFNER JOSEPH M'
p159
(dp160
g3
F714.0
sg4
g5
sg6
F41626.0
sg7
I00
sg8
I1
sg9
F335349.0
sg11
g12
sg13
I0
sg14
F74.0
sg15
F25553.0
sg16
I0
sg17
I0
sg18
F600000.0
sg19
F159211.0
sg20
I0
sg21
I0
sg22
F141833.0
sg23
F206121.0
sg24
I0
sg25
F1208649.0
sg26
I1
sg27
F17378.0
sg29
I0
sg30
I0
ssS'KISHKILL JOSEPH G'
p161
(dp162
g3
g33
sg4
g5
sg6
F116335.0
sg7
I00
sg8
I0
sg9
g10
sg34
S'joe.kishkill@enron.com'
p163
sg11
F-51042.0
sg13
I0
sg14
g36
sg15
F465357.0
sg16
I0
sg17
I0
sg18
g44
sg19
F1034346.0
sg20
I0
sg21
I0
sg22
F1034346.0
sg23
F174246.0
sg24
I0
sg25
F704896.0
sg26
I0
sg27
g28
sg29
I0
sg30
I0
ssS'WHALLEY LAWRENCE G'
p164
(dp165
g3
F6019.0
sg4
g5
sg6
F57838.0
sg7
I00
sg8
I0
sg9
F808346.0
sg11
g12
sg13
I0
sg14
F556.0
sg15
F301026.0
sg16
I0
sg17
I1
sg18
F3000000.0
sg19
F6079137.0
sg20
I1
sg21
I0
sg22
F2796177.0
sg23
F510364.0
sg24
I0
sg25
F4677574.0
sg26
I0
sg27
F3282960.0
sg29
I0
sg30
I0
ssS'PIRO JIM'
p166
(dp167
g3
F58.0
sg4
g5
sg6
g42
sg7
I00
sg8
I0
sg9
g10
sg11
g12
sg13
I1
sg14
F16.0
sg15
g43
sg16
I0
sg17
I0
sg18
g44
sg19
F47304.0
sg20
I0
sg21
I1
sg22
F47304.0
sg23
g45
sg24
I0
sg25
g46
sg26
I0
sg27
g28
sg29
I0
sg30
I0
ssS'MCCONNELL MICHAEL S'
p168
(dp169
g3
F3329.0
sg4
g5
sg6
F81364.0
sg7
I00
sg8
I0
sg9
F554422.0
sg11
g12
sg13
I0
sg14
F2742.0
sg15
F540.0
sg16
I0
sg17
I0
sg18
F1100000.0
sg19
F3101279.0
sg20
I0
sg21
I0
sg22
F1478269.0
sg23
F365038.0
sg24
I0
sg25
F2101364.0
sg26
I0
sg27
F1623010.0
sg29
I1
sg30
I0
ssS'DELAINEY DAVID W'
p170
(dp171
g3
F3093.0
sg4
g5
sg6
F86174.0
sg7
I01
sg8
I2
sg9
F1294981.0
sg11
g12
sg13
I0
sg14
F3069.0
sg15
F1661.0
sg16
I0
sg17
I0
sg18
F3000000.0
sg19
F3614261.0
sg20
I0
sg21
I0
sg22
F1323148.0
sg23
F365163.0
sg24
I1
sg25
F4747979.0
sg26
I0
sg27
F2291113.0
sg29
I0
sg30
I0
ssS'SULLIVAN-SHAKLOVITZ COLLEEN'
p172
(dp173
g3
g33
sg4
F181993.0
sg6
g42
sg7
I00
sg8
I0
sg9
F554422.0
sg34
g35
sg11
g12
sg13
I0
sg14
g36
sg15
F162.0
sg16
I0
sg17
I0
sg18
F100000.0
sg19
F1362375.0
sg20
I0
sg21
I0
sg22
g62
sg23
F162779.0
sg24
I0
sg25
F999356.0
sg26
I0
sg27
F1362375.0
sg29
I0
sg30
I0
ssS'WROBEL BRUCE'
p174
(dp175
g3
g33
sg4
g5
sg6
g42
sg7
I00
sg8
I0
sg9
g10
sg34
g35
sg11
g12
sg13
I0
sg14
g36
sg15
g43
sg16
I0
sg17
I0
sg18
g44
sg19
F139130.0
sg20
I0
sg21
I0
sg22
g62
sg23
g45
sg24
I0
sg25
g46
sg26
I0
sg27
F139130.0
sg29
I0
sg30
I0
ssS'LINDHOLM TOD A'
p176
(dp177
g3
g33
sg4
F204075.0
sg6
F57727.0
sg7
I00
sg8
I0
sg9
F175000.0
sg34
S'tod.lindholm@enron.com'
p178
sg11
g12
sg13
I0
sg14
g36
sg15
F2630.0
sg16
I0
sg17
I0
sg18
F200000.0
sg19
F3064208.0
sg20
I0
sg21
I0
sg22
F514847.0
sg23
F236457.0
sg24
I0
sg25
F875889.0
sg26
I0
sg27
F2549361.0
sg29
I0
sg30
I0
ssS'MEYER JEROME J'
p179
(dp180
g3
g33
sg4
g5
sg6
F2151.0
sg7
I00
sg8
I0
sg9
g10
sg34
g35
sg11
F-38346.0
sg13
I0
sg14
g36
sg15
g43
sg16
I0
sg17
I0
sg18
g44
sg19
g65
sg20
I0
sg21
I0
sg22
g62
sg23
g45
sg24
I0
sg25
F2151.0
sg26
I0
sg27
g28
sg29
I0
sg30
I0
ssS'LAY KENNETH L'
p181
(dp182
g3
F4273.0
sg4
F202911.0
sg6
F99832.0
sg7
I01
sg8
I0
sg9
F3600000.0
sg11
F-300000.0
sg13
I1
sg14
F36.0
sg15
F10359729.0
sg16
I0
sg17
I1
sg18
F7000000.0
sg19
F49110078.0
sg20
I1
sg21
I0
sg22
F14761694.0
sg23
F1072321.0
sg24
I0
sg25
F103559793.0
sg26
I1
sg27
F34348384.0
sg29
I0
sg30
I0
ssS'BUTTS ROBERT H'
p183
(dp184
g3
g33
sg4
g5
sg6
F9410.0
sg7
I00
sg8
I0
sg9
F175000.0
sg34
S'bob.butts@enron.com'
p185
sg11
F-75000.0
sg13
I0
sg14
g36
sg15
F150656.0
sg16
I0
sg17
I0
sg18
F750000.0
sg19
F417619.0
sg20
I0
sg21
I0
sg22
F417619.0
sg23
F261516.0
sg24
I0
sg25
F1271582.0
sg26
I0
sg27
g28
sg29
I0
sg30
I0
ssS'OLSON CINDY K'
p186
(dp187
g3
F1184.0
sg4
F77716.0
sg6
F63791.0
sg7
I00
sg8
I0
sg9
F100000.0
sg11
g12
sg13
I0
sg14
F52.0
sg15
F972.0
sg16
I1
sg17
I0
sg18
F750000.0
sg19
F2606763.0
sg20
I0
sg21
I0
sg22
F969729.0
sg23
F329078.0
sg24
I0
sg25
F1321557.0
sg26
I0
sg27
F1637034.0
sg29
I1
sg30
I0
ssS'MCDONALD REBECCA'
p188
(dp189
g3
F894.0
sg4
g5
sg6
g42
sg7
I00
sg8
I0
sg9
g10
sg11
g12
sg13
I0
sg14
F13.0
sg15
g43
sg16
I0
sg17
I0
sg18
g44
sg19
F1691366.0
sg20
I0
sg21
I0
sg22
F934065.0
sg23
g45
sg24
I0
sg25
g46
sg26
I0
sg27
F757301.0
sg29
I0
sg30
I1
ssS'CUMBERLAND MICHAEL S'
p190
(dp191
g3
g33
sg4
g5
sg6
F22344.0
sg7
I00
sg8
I0
sg9
F275000.0
sg34
g35
sg11
g12
sg13
I0
sg14
g36
sg15
F713.0
sg16
I0
sg17
I0
sg18
F325000.0
sg19
F207940.0
sg20
I0
sg21
I0
sg22
F207940.0
sg23
F184899.0
sg24
I0
sg25
F807956.0
sg26
I0
sg27
g28
sg29
I0
sg30
I0
ssS'GAHN ROBERT S'
p192
(dp193
g3
g33
sg4
F73122.0
sg6
F50080.0
sg7
I00
sg8
I0
sg9
g10
sg34
g35
sg11
F-1042.0
sg13
I0
sg14
g36
sg15
F76547.0
sg16
I0
sg17
I0
sg18
F509870.0
sg19
F318607.0
sg20
I0
sg21
I0
sg22
F235370.0
sg23
F192008.0
sg24
I0
sg25
F900585.0
sg26
I0
sg27
F83237.0
sg29
I0
sg30
I0
ssS'MCCLELLAN GEORGE'
p194
(dp195
g3
F1744.0
sg4
g5
sg6
F228763.0
sg7
I00
sg8
I0
sg9
g10
sg11
F-125000.0
sg13
I0
sg14
F49.0
sg15
F51587.0
sg16
I0
sg17
I0
sg18
F900000.0
sg19
F947861.0
sg20
I1
sg21
I1
sg22
F441096.0
sg23
F263413.0
sg24
I0
sg25
F1318763.0
sg26
I0
sg27
F506765.0
sg29
I0
sg30
I0
ssS'HERMANN ROBERT J'
p196
(dp197
g3
g33
sg4
g5
sg6
F48357.0
sg7
I00
sg8
I0
sg9
F150000.0
sg34
S'robert.hermann@enron.com'
p198
sg11
F-280000.0
sg13
I0
sg14
g36
sg15
F416441.0
sg16
I0
sg17
I0
sg18
F700000.0
sg19
F668132.0
sg20
I0
sg21
I0
sg22
F480632.0
sg23
F262663.0
sg24
I0
sg25
F1297461.0
sg26
I0
sg27
F187500.0
sg29
I0
sg30
I0
ssS'SCRIMSHAW MATTHEW'
p199
(dp200
g3
g33
sg4
g5
sg6
g42
sg7
I00
sg8
I0
sg9
g10
sg34
S'matthew.scrimshaw@enron.com'
p201
sg11
g12
sg13
I0
sg14
g36
sg15
g43
sg16
I0
sg17
I0
sg18
g44
sg19
F759557.0
sg20
I0
sg21
I0
sg22
g62
sg23
g45
sg24
I0
sg25
g46
sg26
I0
sg27
F759557.0
sg29
I0
sg30
I0
ssS'GATHMANN WILLIAM D'
p202
(dp203
g3
g33
sg4
g5
sg6
g42
sg7
I00
sg8
I0
sg9
g10
sg34
g35
sg11
g12
sg13
I0
sg14
g36
sg15
g43
sg16
I0
sg17
I0
sg18
g44
sg19
F1945360.0
sg20
I0
sg21
I0
sg22
F264013.0
sg23
g45
sg24
I0
sg25
g46
sg26
I0
sg27
F1753766.0
sg29
I0
sg30
I0
ssS'HAEDICKE MARK E'
p204
(dp205
g3
F4009.0
sg4
F2157527.0
sg6
F76169.0
sg7
I00
sg8
I0
sg9
F983346.0
sg11
F-934484.0
sg13
I0
sg14
F1941.0
sg15
F52382.0
sg16
I0
sg17
I3
sg18
F1150000.0
sg19
F803094.0
sg20
I1
sg21
I0
sg22
F524169.0
sg23
F374125.0
sg24
I0
sg25
F3859065.0
sg26
I0
sg27
F608750.0
sg29
I0
sg30
I0
ssS'BOWEN JR RAYMOND M'
p206
(dp207
g3
F1858.0
sg4
g5
sg6
F65907.0
sg7
I01
sg8
I0
sg9
F974293.0
sg11
F-833.0
sg13
I0
sg14
F27.0
sg15
F1621.0
sg16
I2
sg17
I0
sg18
F1350000.0
sg19
F252055.0
sg20
I0
sg21
I0
sg22
F252055.0
sg23
F278601.0
sg24
I0
sg25
F2669589.0
sg26
I0
sg27
g28
sg29
I0
sg30
I1
ssS'GILLIS JOHN'
p208
(dp209
g3
g33
sg4
g5
sg6
g42
sg7
I00
sg8
I0
sg9
g10
sg34
g35
sg11
g12
sg13
I0
sg14
g36
sg15
g43
sg16
I0
sg17
I0
sg18
g44
sg19
F85641.0
sg20
I0
sg21
I0
sg22
F75838.0
sg23
g45
sg24
I0
sg25
g46
sg26
I0
sg27
F9803.0
sg29
I0
sg30
I0
ssS'FITZGERALD JAY L'
p210
(dp211
g3
F936.0
sg4
g5
sg6
F23870.0
sg7
I00
sg8
I0
sg9
F556416.0
sg11
g12
sg13
I0
sg14
F16.0
sg15
F285414.0
sg16
I0
sg17
I0
sg18
F350000.0
sg19
F1621236.0
sg20
I0
sg21
I0
sg22
F956775.0
sg23
F199157.0
sg24
I0
sg25
F1414857.0
sg26
I2
sg27
F664461.0
sg29
I0
sg30
I0
ssS'MORAN MICHAEL P'
p212
(dp213
g3
F672.0
sg4
g5
sg6
g42
sg7
I00
sg8
I0
sg9
g10
sg11
g12
sg13
I0
sg14
F19.0
sg15
g43
sg16
I0
sg17
I0
sg18
g44
sg19
F221141.0
sg20
I0
sg21
I0
sg22
F161602.0
sg23
g45
sg24
I0
sg25
g46
sg26
I0
sg27
F59539.0
sg29
I0
sg30
I0
ssS'REDMOND BRIAN L'
p214
(dp215
g3
F1671.0
sg4
g5
sg6
F14689.0
sg7
I00
sg8
I0
sg9
g10
sg11
g12
sg13
I0
sg14
F221.0
sg15
g43
sg16
I0
sg17
I0
sg18
g44
sg19
F7890324.0
sg20
I0
sg21
I1
sg22
F381285.0
sg23
F96840.0
sg24
I1
sg25
F111529.0
sg26
I0
sg27
F7509039.0
sg29
I0
sg30
I2
ssS'BAZELIDES PHILIP J'
p216
(dp217
g3
g33
sg4
F684694.0
sg6
g42
sg7
I00
sg8
I0
sg9
F93750.0
sg34
g35
sg11
g12
sg13
I0
sg14
g36
sg15
F874.0
sg16
I0
sg17
I0
sg18
g44
sg19
F1599641.0
sg20
I0
sg21
I0
sg22
g62
sg23
F80818.0
sg24
I0
sg25
F860136.0
sg26
I0
sg27
F1599641.0
sg29
I0
sg30
I0
ssS'BELDEN TIMOTHY N'
p218
(dp219
g3
F7991.0
sg4
F2144013.0
sg6
F17355.0
sg7
I01
sg8
I2
sg9
g10
sg11
F-2334434.0
sg13
I0
sg14
F484.0
sg15
F210698.0
sg16
I0
sg17
I0
sg18
F5249999.0
sg19
F1110705.0
sg20
I0
sg21
I1
sg22
F157569.0
sg23
F213999.0
sg24
I0
sg25
F5501630.0
sg26
I0
sg27
F953136.0
sg29
I0
sg30
I0
ssS'DURAN WILLIAM D'
p220
(dp221
g3
F904.0
sg4
g5
sg6
F25785.0
sg7
I00
sg8
I0
sg9
F1105218.0
sg11
g12
sg13
I0
sg14
F12.0
sg15
F1568.0
sg16
I0
sg17
I0
sg18
F750000.0
sg19
F1640910.0
sg20
I0
sg21
I0
sg22
F189041.0
sg23
F210692.0
sg24
I1
sg25
F2093263.0
sg26
I1
sg27
F1451869.0
sg29
I0
sg30
I0
ssS'THORN TERENCE H'
p222
(dp223
g3
F266.0
sg4
F16586.0
sg6
F46145.0
sg7
I00
sg8
I0
sg9
F200000.0
sg11
g12
sg13
I0
sg14
F41.0
sg15
F426629.0
sg16
I0
sg17
I0
sg18
g44
sg19
F4817796.0
sg20
I0
sg21
I0
sg22
F365320.0
sg23
F222093.0
sg24
I0
sg25
F911453.0
sg26
I0
sg27
F4452476.0
sg29
I0
sg30
I1
ssS'FASTOW ANDREW S'
p224
(dp225
g3
g33
sg4
g5
sg6
F55921.0
sg7
I01
sg8
I0
sg9
F1736055.0
sg34
S'andrew.fastow@enron.com'
p226
sg11
F-1386055.0
sg13
I0
sg14
g36
sg15
F277464.0
sg16
I0
sg17
I0
sg18
F1300000.0
sg19
F1794412.0
sg20
I0
sg21
I0
sg22
F1794412.0
sg23
F440698.0
sg24
I0
sg25
F2424083.0
sg26
I0
sg27
g28
sg29
I0
sg30
I0
ssS'FOY JOE'
p227
(dp228
g3
F57.0
sg4
F181755.0
sg6
g42
sg7
I00
sg8
I0
sg9
g10
sg11
g12
sg13
I1
sg14
F13.0
sg15
g43
sg16
I1
sg17
I0
sg18
g44
sg19
F343434.0
sg20
I0
sg21
I0
sg22
g62
sg23
g45
sg24
I0
sg25
F181755.0
sg26
I0
sg27
F343434.0
sg29
I0
sg30
I0
ssS'CALGER CHRISTOPHER F'
p229
(dp230
g3
F2598.0
sg4
g5
sg6
F35818.0
sg7
I01
sg8
I0
sg9
F375304.0
sg11
F-262500.0
sg13
I0
sg14
F144.0
sg15
F486.0
sg16
I0
sg17
I0
sg18
F1250000.0
sg19
F126027.0
sg20
I0
sg21
I1
sg22
F126027.0
sg23
F240189.0
sg24
I0
sg25
F1639297.0
sg26
I0
sg27
g28
sg29
I0
sg30
I1
ssS'RICE KENNETH D'
p231
(dp232
g3
F905.0
sg4
g5
sg6
F46950.0
sg7
I01
sg8
I0
sg9
F1617011.0
sg11
F-3504386.0
sg13
I0
sg14
F18.0
sg15
F174839.0
sg16
I2
sg17
I1
sg18
F1750000.0
sg19
F22542539.0
sg20
I0
sg21
I0
sg22
F2748364.0
sg23
F420636.0
sg24
I0
sg25
F505050.0
sg26
I0
sg27
F19794175.0
sg29
I1
sg30
I0
ssS'KAMINSKI WINCENTY J'
p233
(dp234
g3
F4607.0
sg4
g5
sg6
F83585.0
sg7
I00
sg8
I1
sg9
F323466.0
sg11
g12
sg13
I0
sg14
F14368.0
sg15
F4669.0
sg16
I0
sg17
I0
sg18
F400000.0
sg19
F976037.0
sg20
I0
sg21
I0
sg22
F126027.0
sg23
F275101.0
sg24
I0
sg25
F1086821.0
sg26
I0
sg27
F850010.0
sg29
I0
sg30
I0
ssS'COX DAVID'
p235
(dp236
g3
F102.0
sg4
g5
sg6
F27861.0
sg7
I00
sg8
I3
sg9
g10
sg11
F-41250.0
sg13
I3
sg14
F33.0
sg15
F494.0
sg16
I0
sg17
I0
sg18
F800000.0
sg19
F495633.0
sg20
I0
sg21
I0
sg22
F378082.0
sg23
F314288.0
sg24
I0
sg25
F1101393.0
sg26
I0
sg27
F117551.0
sg29
I0
sg30
I0
ssS'OVERDYKE JR JERE C'
p237
(dp238
g3
g33
sg4
g5
sg6
F18834.0
sg7
I00
sg8
I0
sg9
F135836.0
sg34
S'jere.overdyke@enron.com'
p239
sg11
g12
sg13
I0
sg14
g36
sg15
F176.0
sg16
I0
sg17
I0
sg18
g44
sg19
F7307594.0
sg20
I0
sg21
I0
sg22
F2041016.0
sg23
F94941.0
sg24
I0
sg25
F249787.0
sg26
I0
sg27
F5266578.0
sg29
I0
sg30
I0
ssS'PEREIRA PAULO V. FERRAZ'
p240
(dp241
g3
g33
sg4
g5
sg6
F27942.0
sg7
I00
sg8
I0
sg9
g10
sg34
g35
sg11
F-101250.0
sg13
I0
sg14
g36
sg15
g43
sg16
I0
sg17
I0
sg18
g44
sg19
g65
sg20
I0
sg21
I0
sg22
g62
sg23
g45
sg24
I0
sg25
F27942.0
sg26
I0
sg27
g28
sg29
I0
sg30
I0
ssS'STABLER FRANK'
p242
(dp243
g3
g33
sg4
g5
sg6
F16514.0
sg7
I00
sg8
I0
sg9
g10
sg34
S'frank.stabler@enron.com'
p244
sg11
g12
sg13
I0
sg14
g36
sg15
F356071.0
sg16
I0
sg17
I0
sg18
F500000.0
sg19
F511734.0
sg20
I0
sg21
I0
sg22
F511734.0
sg23
F239502.0
sg24
I0
sg25
F1112087.0
sg26
I0
sg27
g28
sg29
I0
sg30
I0
ssS'SKILLING JEFFREY K'
p245
(dp246
g3
F3627.0
sg4
g5
sg6
F29336.0
sg7
I01
sg8
I0
sg9
F1920000.0
sg11
g12
sg13
I1
sg14
F108.0
sg15
F22122.0
sg16
I0
sg17
I1
sg18
F5600000.0
sg19
F26093672.0
sg20
I1
sg21
I0
sg22
F6843672.0
sg23
F1111258.0
sg24
I0
sg25
F8682716.0
sg26
I0
sg27
F19250000.0
sg29
I0
sg30
I0
ssS'BLAKE JR. NORMAN P'
p247
(dp248
g3
g33
sg4
g5
sg6
F1279.0
sg7
I00
sg8
I0
sg9
g10
sg34
g35
sg11
F-113784.0
sg13
I0
sg14
g36
sg15
g43
sg16
I0
sg17
I0
sg18
g44
sg19
g65
sg20
I0
sg21
I0
sg22
g62
sg23
g45
sg24
I0
sg25
F1279.0
sg26
I0
sg27
g28
sg29
I0
sg30
I0
ssS'SHERRICK JEFFREY B'
p249
(dp250
g3
F613.0
sg4
g5
sg6
g42
sg7
I00
sg8
I0
sg9
g10
sg11
g12
sg13
I0
sg14
F25.0
sg15
g43
sg16
I0
sg17
I1
sg18
g44
sg19
F1832468.0
sg20
I0
sg21
I0
sg22
F405999.0
sg23
g45
sg24
I0
sg25
g46
sg26
I1
sg27
F1426469.0
sg29
I0
sg30
I0
ssS'PRENTICE JAMES'
p251
(dp252
g3
g33
sg4
F564348.0
sg6
g42
sg7
I00
sg8
I0
sg9
g10
sg34
S'james.prentice@enron.com'
p253
sg11
g12
sg13
I0
sg14
g36
sg15
g43
sg16
I0
sg17
I0
sg18
g44
sg19
F1095040.0
sg20
I0
sg21
I0
sg22
F208809.0
sg23
g45
sg24
I0
sg25
F564348.0
sg26
I0
sg27
F886231.0
sg29
I0
sg30
I0
ssS'GRAY RODNEY'
p254
(dp255
g3
g33
sg4
F93585.0
sg6
g42
sg7
I00
sg8
I0
sg9
F365625.0
sg34
g35
sg11
g12
sg13
I0
sg14
g36
sg15
F680833.0
sg16
I0
sg17
I0
sg18
g44
sg19
g65
sg20
I0
sg21
I0
sg22
g62
sg23
F6615.0
sg24
I0
sg25
F1146658.0
sg26
I0
sg27
g28
sg29
I0
sg30
I0
ssS'PICKERING MARK R'
p256
(dp257
g3
F898.0
sg4
g5
sg6
F31653.0
sg7
I00
sg8
I0
sg9
g10
sg11
g12
sg13
I0
sg14
F67.0
sg15
g43
sg16
I0
sg17
I0
sg18
F300000.0
sg19
F28798.0
sg20
I0
sg21
I0
sg22
g62
sg23
F655037.0
sg24
I0
sg25
F1386690.0
sg26
I0
sg27
F28798.0
sg29
I0
sg30
I0
ssS'NOLES JAMES L'
p258
(dp259
g3
g33
sg4
F774401.0
sg6
g42
sg7
I00
sg8
I0
sg9
g10
sg34
g35
sg11
g12
sg13
I0
sg14
g36
sg15
g43
sg16
I0
sg17
I0
sg18
g44
sg19
F368705.0
sg20
I0
sg21
I0
sg22
F463261.0
sg23
g45
sg24
I0
sg25
F774401.0
sg26
I0
sg27
g28
sg29
I0
sg30
I0
ssS'KEAN STEVEN J'
p260
(dp261
g3
F12754.0
sg4
g5
sg6
F41953.0
sg7
I00
sg8
I0
sg9
F300000.0
sg11
g12
sg13
I1
sg14
F6759.0
sg15
F1231.0
sg16
I0
sg17
I0
sg18
F1000000.0
sg19
F6153642.0
sg20
I0
sg21
I1
sg22
F4131594.0
sg23
F404338.0
sg24
I0
sg25
F1747522.0
sg26
I0
sg27
F2022048.0
sg29
I0
sg30
I0
ssS'FOWLER PEGGY'
p262
(dp263
g3
F517.0
sg4
g5
sg6
g42
sg7
I00
sg8
I0
sg9
g10
sg11
g12
sg13
I1
sg14
F36.0
sg15
g43
sg16
I0
sg17
I0
sg18
g44
sg19
F1884748.0
sg20
I1
sg21
I0
sg22
F560170.0
sg23
g45
sg24
I0
sg25
g46
sg26
I0
sg27
F1324578.0
sg29
I0
sg30
I0
ssS'WASAFF GEORGE'
p264
(dp265
g3
F400.0
sg4
F831299.0
sg6
g42
sg7
I00
sg8
I1
sg9
F200000.0
sg11
F-583325.0
sg13
I0
sg14
F30.0
sg15
F1425.0
sg16
I0
sg17
I0
sg18
F325000.0
sg19
F2056427.0
sg20
I0
sg21
I0
sg22
F388167.0
sg23
F259996.0
sg24
I0
sg25
F1034395.0
sg26
I0
sg27
F1668260.0
sg29
I0
sg30
I0
ssS'WHITE JR THOMAS E'
p266
(dp267
g3
g33
sg4
g5
sg6
F81353.0
sg7
I00
sg8
I0
sg9
g10
sg34
S'thomas.white@enron.com'
p268
sg11
g12
sg13
I0
sg14
g36
sg15
F1085463.0
sg16
I0
sg17
I0
sg18
F450000.0
sg19
F15144123.0
sg20
I0
sg21
I0
sg22
F13847074.0
sg23
F317543.0
sg24
I0
sg25
F1934359.0
sg26
I0
sg27
F1297049.0
sg29
I0
sg30
I0
ssS'CHRISTODOULOU DIOMEDES'
p269
(dp270
g3
g33
sg4
g5
sg6
g42
sg7
I00
sg8
I0
sg9
g10
sg34
S'diomedes.christodoulou@enron.com'
p271
sg11
g12
sg13
I0
sg14
g36
sg15
g43
sg16
I0
sg17
I0
sg18
g44
sg19
F6077885.0
sg20
I0
sg21
I0
sg22
F950730.0
sg23
g45
sg24
I0
sg25
g46
sg26
I0
sg27
F5127155.0
sg29
I0
sg30
I0
ssS'ALLEN PHILLIP K'
p272
(dp273
g3
F2902.0
sg4
F2869717.0
sg6
F13868.0
sg7
I00
sg8
I1
sg9
F304805.0
sg11
F-3081055.0
sg13
I0
sg14
F2195.0
sg15
F152.0
sg16
I0
sg17
I0
sg18
F4175000.0
sg19
F1729541.0
sg20
I0
sg21
I0
sg22
F126027.0
sg23
F201955.0
sg24
I1
sg25
F4484442.0
sg26
I0
sg27
F1729541.0
sg29
I0
sg30
I0
ssS'SHARP VICTORIA T'
p274
(dp275
g3
F3136.0
sg4
F187469.0
sg6
F116337.0
sg7
I00
sg8
I0
sg9
F422158.0
sg11
g12
sg13
I1
sg14
F136.0
sg15
F2401.0
sg16
I0
sg17
I1
sg18
F600000.0
sg19
F494136.0
sg20
I0
sg21
I0
sg22
F213063.0
sg23
F248146.0
sg24
I0
sg25
F1576511.0
sg26
I0
sg27
F281073.0
sg29
I0
sg30
I0
ssS'JAEDICKE ROBERT'
p276
(dp277
g3
g33
sg4
g5
sg6
g42
sg7
I00
sg8
I0
sg9
g10
sg34
g35
sg11
F-25000.0
sg13
I0
sg14
g36
sg15
g43
sg16
I0
sg17
I0
sg18
g44
sg19
F431750.0
sg20
I0
sg21
I0
sg22
F44093.0
sg23
g45
sg24
I0
sg25
F83750.0
sg26
I0
sg27
F431750.0
sg29
I0
sg30
I0
ssS'WINOKUR JR. HERBERT S'
p278
(dp279
g3
g33
sg4
g5
sg6
F1413.0
sg7
I00
sg8
I0
sg9
g10
sg34
g35
sg11
F-25000.0
sg13
I0
sg14
g36
sg15
g43
sg16
I0
sg17
I0
sg18
g44
sg19
g65
sg20
I0
sg21
I0
sg22
g62
sg23
g45
sg24
I0
sg25
F84992.0
sg26
I0
sg27
g28
sg29
I0
sg30
I0
ssS'BROWN MICHAEL'
p280
(dp281
g3
F1486.0
sg4
g5
sg6
F49288.0
sg7
I00
sg8
I0
sg9
g10
sg11
g12
sg13
I0
sg14
F41.0
sg15
g43
sg16
I0
sg17
I0
sg18
g44
sg19
g65
sg20
I0
sg21
I0
sg22
g62
sg23
g45
sg24
I0
sg25
F49288.0
sg26
I0
sg27
g28
sg29
I0
sg30
I0
ssS'BADUM JAMES P'
p282
(dp283
g3
g33
sg4
F178980.0
sg6
F3486.0
sg7
I00
sg8
I0
sg9
g10
sg34
g35
sg11
g12
sg13
I0
sg14
g36
sg15
g43
sg16
I0
sg17
I0
sg18
g44
sg19
F257817.0
sg20
I0
sg21
I0
sg22
g62
sg23
g45
sg24
I0
sg25
F182466.0
sg26
I0
sg27
F257817.0
sg29
I0
sg30
I0
ssS'HUGHES JAMES A'
p284
(dp285
g3
F719.0
sg4
g5
sg6
g42
sg7
I00
sg8
I0
sg9
g10
sg11
g12
sg13
I0
sg14
F34.0
sg15
g43
sg16
I0
sg17
I0
sg18
g44
sg19
F1118394.0
sg20
I0
sg21
I0
sg22
F363428.0
sg23
g45
sg24
I0
sg25
g46
sg26
I0
sg27
F754966.0
sg29
I1
sg30
I1
ssS'REYNOLDS LAWRENCE'
p286
(dp287
g3
g33
sg4
F51365.0
sg6
F8409.0
sg7
I00
sg8
I0
sg9
F156250.0
sg34
g35
sg11
F-200000.0
sg13
I0
sg14
g36
sg15
F202052.0
sg16
I0
sg17
I0
sg18
F100000.0
sg19
F4221891.0
sg20
I0
sg21
I0
sg22
F201483.0
sg23
F76399.0
sg24
I0
sg25
F394475.0
sg26
I0
sg27
F4160672.0
sg29
I0
sg30
I0
ssS'DIMICHELE RICHARD G'
p288
(dp289
g3
g33
sg4
g5
sg6
F35812.0
sg7
I00
sg8
I0
sg9
F694862.0
sg34
S'richard.dimichele@enron.com'
p290
sg11
g12
sg13
I0
sg14
g36
sg15
F374689.0
sg16
I0
sg17
I0
sg18
F1000000.0
sg19
F8317782.0
sg20
I0
sg21
I0
sg22
F126027.0
sg23
F262788.0
sg24
I0
sg25
F2368151.0
sg26
I0
sg27
F8191755.0
sg29
I0
sg30
I0
ssS'BHATNAGAR SANJAY'
p291
(dp292
g3
F523.0
sg4
g5
sg6
g42
sg7
I00
sg8
I0
sg9
g10
sg11
g12
sg13
I0
sg14
F29.0
sg15
F137864.0
sg16
I0
sg17
I0
sg18
g44
sg19
g65
sg20
I0
sg21
I0
sg22
F-2604490.0
sg23
g45
sg24
I0
sg25
F15456290.0
sg26
I0
sg27
F2604490.0
sg29
I0
sg30
I0
ssS'CARTER REBECCA C'
p293
(dp294
g3
F312.0
sg4
g5
sg6
g42
sg7
I00
sg8
I0
sg9
F75000.0
sg11
F-159792.0
sg13
I1
sg14
F15.0
sg15
F540.0
sg16
I0
sg17
I0
sg18
F300000.0
sg19
g65
sg20
I0
sg21
I0
sg22
F307301.0
sg23
F261809.0
sg24
I0
sg25
F477557.0
sg26
I0
sg27
g28
sg29
I0
sg30
I0
ssS'BUCHANAN HAROLD G'
p295
(dp296
g3
F1088.0
sg4
g5
sg6
F600.0
sg7
I00
sg8
I0
sg9
F304805.0
sg11
g12
sg13
I0
sg14
F125.0
sg15
F1215.0
sg16
I0
sg17
I0
sg18
F500000.0
sg19
F1014505.0
sg20
I1
sg21
I0
sg22
F189041.0
sg23
F248017.0
sg24
I0
sg25
F1054637.0
sg26
I0
sg27
F825464.0
sg29
I0
sg30
I0
ssS'YEAP SOON'
p297
(dp298
g3
g33
sg4
g5
sg6
F55097.0
sg7
I00
sg8
I0
sg9
g10
sg34
g35
sg11
g12
sg13
I0
sg14
g36
sg15
g43
sg16
I0
sg17
I0
sg18
g44
sg19
F192758.0
sg20
I0
sg21
I0
sg22
g62
sg23
g45
sg24
I0
sg25
F55097.0
sg26
I0
sg27
F192758.0
sg29
I0
sg30
I0
ssS'MURRAY JULIA H'
p299
(dp300
g3
F2192.0
sg4
g5
sg6
F57580.0
sg7
I00
sg8
I0
sg9
F125000.0
sg11
g12
sg13
I0
sg14
F45.0
sg15
F330.0
sg16
I0
sg17
I0
sg18
F400000.0
sg19
F597461.0
sg20
I0
sg21
I0
sg22
F196983.0
sg23
F229284.0
sg24
I0
sg25
F812194.0
sg26
I0
sg27
F400478.0
sg29
I0
sg30
I0
ssS'GARLAND C KEVIN'
p301
(dp302
g3
F209.0
sg4
g5
sg6
F48405.0
sg7
I00
sg8
I0
sg9
F375304.0
sg11
g12
sg13
I0
sg14
F44.0
sg15
F60814.0
sg16
I0
sg17
I0
sg18
F850000.0
sg19
F896153.0
sg20
I0
sg21
I0
sg22
F259907.0
sg23
F231946.0
sg24
I1
sg25
F1566469.0
sg26
I0
sg27
F636246.0
sg29
I0
sg30
I1
ssS'DODSON KEITH'
p303
(dp304
g3
F176.0
sg4
g5
sg6
F28164.0
sg7
I00
sg8
I0
sg9
g10
sg11
g12
sg13
I0
sg14
F14.0
sg15
F774.0
sg16
I0
sg17
I0
sg18
F70000.0
sg19
g65
sg20
I0
sg21
I0
sg22
g62
sg23
F221003.0
sg24
I0
sg25
F319941.0
sg26
I0
sg27
g28
sg29
I0
sg30
I0
ssS'YEAGER F SCOTT'
p305
(dp306
g3
g33
sg4
g5
sg6
F53947.0
sg7
I01
sg8
I0
sg9
g10
sg34
S'scott.yeager@enron.com'
p307
sg11
g12
sg13
I0
sg14
g36
sg15
F147950.0
sg16
I0
sg17
I0
sg18
g44
sg19
F11884758.0
sg20
I0
sg21
I0
sg22
F3576206.0
sg23
F158403.0
sg24
I0
sg25
F360300.0
sg26
I0
sg27
F8308552.0
sg29
I0
sg30
I0
ssS'HIRKO JOSEPH'
p308
(dp309
g3
g33
sg4
F10259.0
sg6
F77978.0
sg7
I01
sg8
I0
sg9
g10
sg34
S'joe.hirko@enron.com'
p310
sg11
g12
sg13
I0
sg14
g36
sg15
F2856.0
sg16
I0
sg17
I0
sg18
g44
sg19
F30766064.0
sg20
I0
sg21
I0
sg22
g62
sg23
g45
sg24
I0
sg25
F91093.0
sg26
I0
sg27
F30766064.0
sg29
I0
sg30
I0
ssS'DIETRICH JANET R'
p311
(dp312
g3
F2572.0
sg4
g5
sg6
F3475.0
sg7
I00
sg8
I0
sg9
F556416.0
sg11
g12
sg13
I0
sg14
F63.0
sg15
F473.0
sg16
I0
sg17
I0
sg18
F600000.0
sg19
F1865087.0
sg20
I0
sg21
I0
sg22
F315068.0
sg23
F250100.0
sg24
I1
sg25
F1410464.0
sg26
I0
sg27
F1550019.0
sg29
I0
sg30
I1
ssS'DERRICK JR. JAMES V'
p313
(dp314
g3
F2181.0
sg4
g5
sg6
F51124.0
sg7
I00
sg8
I0
sg9
F484000.0
sg11
F-1284000.0
sg13
I0
sg14
F909.0
sg15
F7482.0
sg16
I0
sg17
I0
sg18
F800000.0
sg19
F8831913.0
sg20
I0
sg21
I0
sg22
F1787380.0
sg23
F492375.0
sg24
I0
sg25
F550981.0
sg26
I0
sg27
F8831913.0
sg29
I0
sg30
I0
ssS'FREVERT MARK A'
p315
(dp316
g3
F3275.0
sg4
F6426990.0
sg6
F86987.0
sg7
I00
sg8
I0
sg9
F1617011.0
sg11
F-3367011.0
sg13
I0
sg14
F21.0
sg15
F7427621.0
sg16
I0
sg17
I0
sg18
F2000000.0
sg19
F14622185.0
sg20
I1
sg21
I0
sg22
F4188667.0
sg23
F1060932.0
sg24
I0
sg25
F17252530.0
sg26
I0
sg27
F10433518.0
sg29
I0
sg30
I0
ssS'PAI LOU L'
p317
(dp318
g3
g33
sg4
g5
sg6
F32047.0
sg7
I00
sg8
I0
sg9
g10
sg34
S'lou.pai@enron.com'
p319
sg11
g12
sg13
I0
sg14
g36
sg15
F1829457.0
sg16
I0
sg17
I0
sg18
F1000000.0
sg19
F23817930.0
sg20
I0
sg21
I0
sg22
F8453763.0
sg23
F261879.0
sg24
I0
sg25
F3123383.0
sg26
I0
sg27
F15364167.0
sg29
I0
sg30
I0
ssS'BAY FRANKLIN R'
p320
(dp321
g3
g33
sg4
F260455.0
sg6
F129142.0
sg7
I00
sg8
I0
sg9
g10
sg34
S'frank.bay@enron.com'
p322
sg11
F-201641.0
sg13
I0
sg14
g36
sg15
F69.0
sg16
I0
sg17
I0
sg18
F400000.0
sg19
F63014.0
sg20
I0
sg21
I0
sg22
F145796.0
sg23
F239671.0
sg24
I0
sg25
F827696.0
sg26
I0
sg27
g28
sg29
I0
sg30
I0
ssS'HAYSLETT RODERICK J'
p323
(dp324
g3
F2649.0
sg4
g5
sg6
g42
sg7
I00
sg8
I1
sg9
g10
sg11
g12
sg13
I0
sg14
F1061.0
sg15
g43
sg16
I0
sg17
I0
sg18
g44
sg19
F346663.0
sg20
I0
sg21
I0
sg22
F346663.0
sg23
g45
sg24
I0
sg25
g46
sg26
I0
sg27
g28
sg29
I0
sg30
I0
ssS'FUGH JOHN L'
p325
(dp326
g3
g33
sg4
F50591.0
sg6
g42
sg7
I00
sg8
I0
sg9
g10
sg34
g35
sg11
g12
sg13
I0
sg14
g36
sg15
g43
sg16
I0
sg17
I0
sg18
g44
sg19
F176378.0
sg20
I0
sg21
I0
sg22
g62
sg23
g45
sg24
I0
sg25
F50591.0
sg26
I0
sg27
F176378.0
sg29
I0
sg30
I0
ssS'FALLON JAMES B'
p327
(dp328
g3
F1755.0
sg4
g5
sg6
F95924.0
sg7
I00
sg8
I0
sg9
F374347.0
sg11
g12
sg13
I0
sg14
F75.0
sg15
F401481.0
sg16
I0
sg17
I1
sg18
F2500000.0
sg19
F2332399.0
sg20
I1
sg21
I0
sg22
F1392142.0
sg23
F304588.0
sg24
I0
sg25
F3676340.0
sg26
I0
sg27
F940257.0
sg29
I1
sg30
I0
ssS'KOENIG MARK E'
p329
(dp330
g3
F2374.0
sg4
g5
sg6
F127017.0
sg7
I01
sg8
I0
sg9
F300000.0
sg11
g12
sg13
I0
sg14
F61.0
sg15
F150458.0
sg16
I0
sg17
I0
sg18
F700000.0
sg19
F1920055.0
sg20
I1
sg21
I0
sg22
F1248318.0
sg23
F309946.0
sg24
I1
sg25
F1587421.0
sg26
I0
sg27
F671737.0
sg29
I0
sg30
I0
ssS'SAVAGE FRANK'
p331
(dp332
g3
g33
sg4
g5
sg6
g42
sg7
I00
sg8
I0
sg9
g10
sg34
g35
sg11
F-121284.0
sg13
I0
sg14
g36
sg15
g43
sg16
I0
sg17
I0
sg18
g44
sg19
g65
sg20
I0
sg21
I0
sg22
g62
sg23
g45
sg24
I0
sg25
F3750.0
sg26
I0
sg27
g28
sg29
I0
sg30
I0
ssS'IZZO LAWRENCE L'
p333
(dp334
g3
F496.0
sg4
g5
sg6
F28093.0
sg7
I00
sg8
I0
sg9
F312500.0
sg11
g12
sg13
I0
sg14
F19.0
sg15
F1553729.0
sg16
I0
sg17
I0
sg18
g44
sg19
F5819980.0
sg20
I0
sg21
I0
sg22
F3654808.0
sg23
F85274.0
sg24
I0
sg25
F1979596.0
sg26
I0
sg27
F2165172.0
sg29
I0
sg30
I0
ssS'TILNEY ELIZABETH A'
p335
(dp336
g3
F460.0
sg4
g5
sg6
g42
sg7
I00
sg8
I0
sg9
F275000.0
sg11
F-575000.0
sg13
I0
sg14
F19.0
sg15
F152055.0
sg16
I0
sg17
I0
sg18
F300000.0
sg19
F1168042.0
sg20
I0
sg21
I1
sg22
F576792.0
sg23
F247338.0
sg24
I0
sg25
F399393.0
sg26
I0
sg27
F591250.0
sg29
I0
sg30
I0
ssS'MARTIN AMANDA K'
p337
(dp338
g3
F1522.0
sg4
F85430.0
sg6
F8211.0
sg7
I00
sg8
I0
sg9
F5145434.0
sg11
g12
sg13
I1
sg14
F230.0
sg15
F2818454.0
sg16
I0
sg17
I1
sg18
g44
sg19
F2070306.0
sg20
I0
sg21
I0
sg22
g62
sg23
F349487.0
sg24
I1
sg25
F8407016.0
sg26
I0
sg27
F2070306.0
sg29
I0
sg30
I0
ssS'BUY RICHARD B'
p339
(dp340
g3
F3523.0
sg4
F649584.0
sg6
g42
sg7
I00
sg8
I0
sg9
F769862.0
sg11
F-694862.0
sg13
I0
sg14
F1053.0
sg15
F400572.0
sg16
I0
sg17
I1
sg18
F900000.0
sg19
F3444470.0
sg20
I0
sg21
I0
sg22
F901657.0
sg23
F330546.0
sg24
I0
sg25
F2355702.0
sg26
I1
sg27
F2542813.0
sg29
I0
sg30
I0
ssS'GRAMM WENDY L'
p341
(dp342
g3
g33
sg4
g5
sg6
g42
sg7
I00
sg8
I0
sg9
g10
sg34
g35
sg11
g12
sg13
I0
sg14
g36
sg15
g43
sg16
I0
sg17
I0
sg18
g44
sg19
g65
sg20
I0
sg21
I0
sg22
g62
sg23
g45
sg24
I0
sg25
F119292.0
sg26
I0
sg27
g28
sg29
I0
sg30
I0
ssS'CAUSEY RICHARD A'
p343
(dp344
g3
F1892.0
sg4
g5
sg6
F30674.0
sg7
I01
sg8
I0
sg9
F350000.0
sg11
F-235000.0
sg13
I0
sg14
F49.0
sg15
F307895.0
sg16
I2
sg17
I0
sg18
F1000000.0
sg19
F2502063.0
sg20
I0
sg21
I0
sg22
F2502063.0
sg23
F415189.0
sg24
I0
sg25
F1868758.0
sg26
I0
sg27
g28
sg29
I2
sg30
I0
ssS'TAYLOR MITCHELL S'
p345
(dp346
g3
F533.0
sg4
F227449.0
sg6
g42
sg7
I00
sg8
I0
sg9
g10
sg11
g12
sg13
I0
sg14
F29.0
sg15
g43
sg16
I0
sg17
I0
sg18
F600000.0
sg19
F3745048.0
sg20
I0
sg21
I1
sg22
F563798.0
sg23
F265214.0
sg24
I0
sg25
F1092663.0
sg26
I0
sg27
F3181250.0
sg29
I0
sg30
I0
ssS'DONAHUE JR JEFFREY M'
p347
(dp348
g3
F865.0
sg4
g5
sg6
F96268.0
sg7
I00
sg8
I0
sg9
g10
sg11
F-300000.0
sg13
I0
sg14
F22.0
sg15
F891.0
sg16
I0
sg17
I1
sg18
F800000.0
sg19
F1080988.0
sg20
I0
sg21
I1
sg22
F315068.0
sg23
F278601.0
sg24
I1
sg25
F875760.0
sg26
I2
sg27
F765920.0
sg29
I0
sg30
I0
ssS'GLISAN JR BEN F'
p349
(dp350
g3
F873.0
sg4
g5
sg6
F125978.0
sg7
I01
sg8
I0
sg9
F71023.0
sg11
g12
sg13
I0
sg14
F16.0
sg15
F200308.0
sg16
I2
sg17
I1
sg18
F600000.0
sg19
F778546.0
sg20
I0
sg21
I0
sg22
F393818.0
sg23
F274975.0
sg24
I0
sg25
F1272284.0
sg26
I0
sg27
F384728.0
sg29
I1
sg30
I0
ss.
