(dp0
S'METTS MARK'
p1
(dp2
S'to_messages'
p3
F807.0
sS'deferral_payments'
p4
S'NaN'
p5
sVblown
p6
I0
sS'expenses'
p7
F94299.0
sS'poi'
p8
I00
sS'long_term_incentive'
p9
S'NaN'
p10
sS'email_address'
p11
S'mark.metts@enron.com'
p12
sS'from_poi_to_this_person'
p13
F38.0
sS'deferred_income'
p14
S'NaN'
p15
sS'restricted_stock_deferred'
p16
S'NaN'
p17
sS'shared_receipt_with_poi'
p18
F702.0
sS'loan_advances'
p19
S'NaN'
p20
sS'from_messages'
p21
F29.0
sS'other'
p22
F1740.0
sVboardroom
p23
I0
sS'director_fees'
p24
S'NaN'
p25
sS'bonus'
p26
F600000.0
sS'total_stock_value'
p27
F585062.0
sS'from_this_person_to_poi'
p28
F1.0
sS'restricted_stock'
p29
F585062.0
sS'salary'
p30
F365788.0
sS'total_payments'
p31
F1061827.0
sS'exercised_stock_options'
p32
S'NaN'
p33
ssS'BAXTER JOHN C'
p34
(dp35
g3
S'NaN'
p36
sg4
F1295738.0
sg6
I0
sg7
F11200.0
sg8
I00
sg9
F1586055.0
sg11
S'NaN'
p37
sg13
S'NaN'
p38
sg14
F-1386055.0
sg16
g17
sg18
S'NaN'
p39
sg19
g20
sg21
S'NaN'
p40
sg22
F2660303.0
sg23
I0
sg24
g25
sg26
F1200000.0
sg27
F10623258.0
sg28
S'NaN'
p41
sg29
F3942714.0
sg30
F267102.0
sg31
F5634343.0
sg32
F6680544.0
ssS'ELLIOTT STEVEN'
p42
(dp43
g3
g36
sg4
g5
sg6
I0
sg7
F78552.0
sg8
I00
sg9
g10
sg11
S'steven.elliott@enron.com'
p44
sg13
g38
sg14
F-400729.0
sg16
g17
sg18
g39
sg19
g20
sg21
g40
sg22
F12961.0
sg23
I0
sg24
g25
sg26
F350000.0
sg27
F6678735.0
sg28
g41
sg29
F1788391.0
sg30
F170941.0
sg31
F211725.0
sg32
F4890344.0
ssS'CORDES WILLIAM R'
p45
(dp46
g3
F764.0
sg4
g5
sg6
I0
sg7
S'NaN'
p47
sg8
I00
sg9
g10
sg11
S'bill.cordes@enron.com'
p48
sg13
F10.0
sg14
g15
sg16
g17
sg18
F58.0
sg19
g20
sg21
F12.0
sg22
S'NaN'
p49
sg23
I0
sg24
g25
sg26
S'NaN'
p50
sg27
F1038185.0
sg28
F0.0
sg29
F386335.0
sg30
S'NaN'
p51
sg31
S'NaN'
p52
sg32
F651850.0
ssS'HANNON KEVIN P'
p53
(dp54
g3
F1045.0
sg4
g5
sg6
I0
sg7
F34039.0
sg8
I01
sg9
F1617011.0
sg11
S'kevin.hannon@enron.com'
p55
sg13
F32.0
sg14
F-3117011.0
sg16
g17
sg18
F1035.0
sg19
g20
sg21
F32.0
sg22
F11350.0
sg23
I0
sg24
g25
sg26
F1500000.0
sg27
F6391065.0
sg28
F21.0
sg29
F853064.0
sg30
F243293.0
sg31
F288682.0
sg32
F5538001.0
ssS'MORDAUNT KRISTINA M'
p56
(dp57
g3
g36
sg4
g5
sg6
I0
sg7
F35018.0
sg8
I00
sg9
g10
sg11
S'kristina.mordaunt@enron.com'
p58
sg13
g38
sg14
g15
sg16
g17
sg18
g39
sg19
g20
sg21
g40
sg22
F1411.0
sg23
I0
sg24
g25
sg26
F325000.0
sg27
F208510.0
sg28
g41
sg29
F208510.0
sg30
F267093.0
sg31
F628522.0
sg32
g33
ssS'MEYER ROCKFORD G'
p59
(dp60
g3
F232.0
sg4
F1848227.0
sg6
I0
sg7
g47
sg8
I00
sg9
g10
sg11
S'rockford.meyer@enron.com'
p61
sg13
F0.0
sg14
g15
sg16
g17
sg18
F22.0
sg19
g20
sg21
F28.0
sg22
g49
sg23
I0
sg24
g25
sg26
g50
sg27
F955873.0
sg28
F0.0
sg29
F462384.0
sg30
g51
sg31
F1848227.0
sg32
F493489.0
ssS'MCMAHON JEFFREY'
p62
(dp63
g3
F2355.0
sg4
g5
sg6
I0
sg7
F137108.0
sg8
I00
sg9
F694862.0
sg11
S'jeffrey.mcmahon@enron.com'
p64
sg13
F58.0
sg14
g15
sg16
g17
sg18
F2228.0
sg19
g20
sg21
F48.0
sg22
F297353.0
sg23
I0
sg24
g25
sg26
F2600000.0
sg27
F1662855.0
sg28
F26.0
sg29
F558801.0
sg30
F370448.0
sg31
F4099771.0
sg32
F1104054.0
ssS'HORTON STANLEY C'
p65
(dp66
g3
F2350.0
sg4
F3131860.0
sg6
I0
sg7
g47
sg8
I00
sg9
g10
sg11
S'stanley.horton@enron.com'
p67
sg13
F44.0
sg14
g15
sg16
g17
sg18
F1074.0
sg19
g20
sg21
F1073.0
sg22
g49
sg23
I0
sg24
g25
sg26
g50
sg27
F7256648.0
sg28
F15.0
sg29
F2046079.0
sg30
g51
sg31
F3131860.0
sg32
F5210569.0
ssS'PIPER GREGORY F'
p68
(dp69
g3
F1238.0
sg4
F1130036.0
sg6
I3
sg7
F43057.0
sg8
I00
sg9
g10
sg11
S'greg.piper@enron.com'
p70
sg13
F61.0
sg14
F-33333.0
sg16
F-409554.0
sg18
F742.0
sg19
g20
sg21
F222.0
sg22
F778.0
sg23
I0
sg24
g25
sg26
F400000.0
sg27
F880290.0
sg28
F48.0
sg29
F409554.0
sg30
F197091.0
sg31
F1737629.0
sg32
F880290.0
ssS'HUMPHREY GENE E'
p71
(dp72
g3
F128.0
sg4
F2964506.0
sg6
I0
sg7
F4994.0
sg8
I00
sg9
g10
sg11
S'gene.humphrey@enron.com'
p73
sg13
F10.0
sg14
g15
sg16
g17
sg18
F119.0
sg19
g20
sg21
F17.0
sg22
g49
sg23
I0
sg24
g25
sg26
g50
sg27
F2282768.0
sg28
F17.0
sg29
S'NaN'
p74
sg30
F130724.0
sg31
F3100224.0
sg32
F2282768.0
ssS'UMANOFF ADAM S'
p75
(dp76
g3
F111.0
sg4
g5
sg6
I0
sg7
F53122.0
sg8
I00
sg9
g10
sg11
S'adam.umanoff@enron.com'
p77
sg13
F12.0
sg14
g15
sg16
g17
sg18
F41.0
sg19
g20
sg21
F18.0
sg22
g49
sg23
I0
sg24
g25
sg26
F788750.0
sg27
S'NaN'
p78
sg28
F0.0
sg29
g74
sg30
F288589.0
sg31
F1130461.0
sg32
g33
ssS'BLACHMAN JEREMY M'
p79
(dp80
g3
F2475.0
sg4
g5
sg6
I0
sg7
F84208.0
sg8
I00
sg9
F831809.0
sg11
S'jeremy.blachman@enron.com'
p81
sg13
F25.0
sg14
g15
sg16
g17
sg18
F2326.0
sg19
g20
sg21
F14.0
sg22
F272.0
sg23
I0
sg24
g25
sg26
F850000.0
sg27
F954354.0
sg28
F2.0
sg29
F189041.0
sg30
F248546.0
sg31
F2014835.0
sg32
F765313.0
ssS'SUNDE MARTIN'
p82
(dp83
g3
F2647.0
sg4
g5
sg6
I0
sg7
g47
sg8
I00
sg9
F476451.0
sg11
S'marty.sunde@enron.com'
p84
sg13
F37.0
sg14
g15
sg16
g17
sg18
F2565.0
sg19
g20
sg21
F38.0
sg22
F111122.0
sg23
I0
sg24
g25
sg26
F700000.0
sg27
F698920.0
sg28
F13.0
sg29
F698920.0
sg30
F257486.0
sg31
F1545059.0
sg32
g33
ssS'GIBBS DANA R'
p85
(dp86
g3
F169.0
sg4
F504610.0
sg6
I0
sg7
g47
sg8
I00
sg9
F461912.0
sg11
S'dana.gibbs@enron.com'
p87
sg13
F0.0
sg14
g15
sg16
g17
sg18
F23.0
sg19
g20
sg21
F12.0
sg22
g49
sg23
I0
sg24
g25
sg26
g50
sg27
F2218275.0
sg28
F0.0
sg29
g74
sg30
g51
sg31
F966522.0
sg32
F2218275.0
ssS'LOWRY CHARLES P'
p88
(dp89
g3
g36
sg4
g5
sg6
I0
sg7
g47
sg8
I00
sg9
g10
sg11
g37
sg13
g38
sg14
g15
sg16
F-153686.0
sg18
g39
sg19
g20
sg21
g40
sg22
g49
sg23
I0
sg24
g25
sg26
g50
sg27
F372205.0
sg28
g41
sg29
F153686.0
sg30
g51
sg31
g52
sg32
F372205.0
ssS'COLWELL WESLEY'
p90
(dp91
g3
F1758.0
sg4
F27610.0
sg6
I0
sg7
F16514.0
sg8
I01
sg9
g10
sg11
S'wes.colwell@enron.com'
p92
sg13
F240.0
sg14
F-144062.0
sg16
g17
sg18
F1132.0
sg19
g20
sg21
F40.0
sg22
F101740.0
sg23
I0
sg24
g25
sg26
F1200000.0
sg27
F698242.0
sg28
F11.0
sg29
F698242.0
sg30
F288542.0
sg31
F1490344.0
sg32
g33
ssS'MULLER MARK S'
p93
(dp94
g3
F136.0
sg4
F842924.0
sg6
I0
sg7
g47
sg8
I00
sg9
F1725545.0
sg11
S's..muller@enron.com'
p95
sg13
F12.0
sg14
F-719000.0
sg16
g17
sg18
F114.0
sg19
g20
sg21
F16.0
sg22
F947.0
sg23
I0
sg24
g25
sg26
F1100000.0
sg27
F1416848.0
sg28
F0.0
sg29
F360528.0
sg30
F251654.0
sg31
F3202070.0
sg32
F1056320.0
ssS'JACKSON CHARLENE R'
p96
(dp97
g3
F258.0
sg4
g5
sg6
I0
sg7
F10181.0
sg8
I00
sg9
g10
sg11
S'charlene.jackson@enron.com'
p98
sg13
F25.0
sg14
g15
sg16
g17
sg18
F117.0
sg19
g20
sg21
F56.0
sg22
F2435.0
sg23
I0
sg24
g25
sg26
F250000.0
sg27
F725735.0
sg28
F19.0
sg29
F540672.0
sg30
F288558.0
sg31
F551174.0
sg32
F185063.0
ssS'WESTFAHL RICHARD K'
p99
(dp100
g3
g36
sg4
g5
sg6
I0
sg7
F51870.0
sg8
I00
sg9
F256191.0
sg11
S'dick.westfahl@enron.com'
p101
sg13
g38
sg14
F-10800.0
sg16
g17
sg18
g39
sg19
g20
sg21
g40
sg22
F401130.0
sg23
I0
sg24
g25
sg26
g50
sg27
F384930.0
sg28
g41
sg29
F384930.0
sg30
F63744.0
sg31
F762135.0
sg32
g33
ssS'WALTERS GARETH W'
p102
(dp103
g3
g36
sg4
F53625.0
sg6
I0
sg7
F33785.0
sg8
I00
sg9
g10
sg11
g37
sg13
g38
sg14
g15
sg16
g17
sg18
g39
sg19
g20
sg21
g40
sg22
g49
sg23
I0
sg24
g25
sg26
g50
sg27
F1030329.0
sg28
g41
sg29
g74
sg30
g51
sg31
F87410.0
sg32
F1030329.0
ssS'WALLS JR ROBERT H'
p104
(dp105
g3
F671.0
sg4
g5
sg6
I0
sg7
F50936.0
sg8
I00
sg9
F540751.0
sg11
S'rob.walls@enron.com'
p106
sg13
F17.0
sg14
g15
sg16
g17
sg18
F215.0
sg19
g20
sg21
F146.0
sg22
F2.0
sg23
I0
sg24
g25
sg26
F850000.0
sg27
F5898997.0
sg28
F0.0
sg29
F1552453.0
sg30
F357091.0
sg31
F1798780.0
sg32
F4346544.0
ssS'KITCHEN LOUISE'
p107
(dp108
g3
F8305.0
sg4
g5
sg6
I0
sg7
F5774.0
sg8
I00
sg9
g10
sg11
S'louise.kitchen@enron.com'
p109
sg13
F251.0
sg14
g15
sg16
g17
sg18
F3669.0
sg19
g20
sg21
F1728.0
sg22
F93925.0
sg23
I0
sg24
g25
sg26
F3100000.0
sg27
F547143.0
sg28
F194.0
sg29
F466101.0
sg30
F271442.0
sg31
F3471141.0
sg32
F81042.0
ssS'CHAN RONNIE'
p110
(dp111
g3
g36
sg4
g5
sg6
I0
sg7
g47
sg8
I00
sg9
g10
sg11
g37
sg13
g38
sg14
F-98784.0
sg16
F-32460.0
sg18
g39
sg19
g20
sg21
g40
sg22
g49
sg23
I0
sg24
F98784.0
sg26
g50
sg27
g78
sg28
g41
sg29
F32460.0
sg30
g51
sg31
g52
sg32
g33
ssS'BELFER ROBERT'
p112
(dp113
g3
g36
sg4
F-102500.0
sg6
I0
sg7
g47
sg8
I00
sg9
g10
sg11
g37
sg13
g38
sg14
g15
sg16
F44093.0
sg18
g39
sg19
g20
sg21
g40
sg22
g49
sg23
I0
sg24
F3285.0
sg26
g50
sg27
F-44093.0
sg28
g41
sg29
g74
sg30
g51
sg31
F102500.0
sg32
F3285.0
ssS'SHANKMAN JEFFREY A'
p114
(dp115
g3
F3221.0
sg4
g5
sg6
I0
sg7
F178979.0
sg8
I00
sg9
F554422.0
sg11
S'jeffrey.shankman@enron.com'
p116
sg13
F94.0
sg14
g15
sg16
g17
sg18
F1730.0
sg19
g20
sg21
F2681.0
sg22
F1191.0
sg23
I0
sg24
g25
sg26
F2000000.0
sg27
F2072035.0
sg28
F83.0
sg29
F630137.0
sg30
F304110.0
sg31
F3038702.0
sg32
F1441898.0
ssS'WODRASKA JOHN'
p117
(dp118
g3
g36
sg4
g5
sg6
I0
sg7
g47
sg8
I00
sg9
g10
sg11
S'john.wodraska@enron.com'
p119
sg13
g38
sg14
g15
sg16
g17
sg18
g39
sg19
g20
sg21
g40
sg22
F189583.0
sg23
I0
sg24
g25
sg26
g50
sg27
g78
sg28
g41
sg29
g74
sg30
g51
sg31
F189583.0
sg32
g33
ssS'BERGSIEKER RICHARD P'
p120
(dp121
g3
F383.0
sg4
g5
sg6
I0
sg7
F59175.0
sg8
I00
sg9
F180250.0
sg11
S'rick.bergsieker@enron.com'
p122
sg13
F4.0
sg14
F-485813.0
sg16
g17
sg18
F233.0
sg19
g20
sg21
F59.0
sg22
F427316.0
sg23
I0
sg24
g25
sg26
F250000.0
sg27
F659249.0
sg28
F0.0
sg29
F659249.0
sg30
F187922.0
sg31
F618850.0
sg32
g33
ssS'URQUHART JOHN A'
p123
(dp124
g3
g36
sg4
g5
sg6
I0
sg7
F228656.0
sg8
I00
sg9
g10
sg11
g37
sg13
g38
sg14
F-36666.0
sg16
g17
sg18
g39
sg19
g20
sg21
g40
sg22
g49
sg23
I0
sg24
F36666.0
sg26
g50
sg27
g78
sg28
g41
sg29
g74
sg30
g51
sg31
F228656.0
sg32
g33
ssS'BIBI PHILIPPE A'
p125
(dp126
g3
F1607.0
sg4
g5
sg6
I0
sg7
F38559.0
sg8
I00
sg9
F369721.0
sg11
S'philippe.bibi@enron.com'
p127
sg13
F23.0
sg14
g15
sg16
g17
sg18
F1336.0
sg19
g20
sg21
F40.0
sg22
F425688.0
sg23
I0
sg24
g25
sg26
F1000000.0
sg27
F1843816.0
sg28
F8.0
sg29
F378082.0
sg30
F213625.0
sg31
F2047593.0
sg32
F1465734.0
ssS'PIRO JIM'
p128
(dp129
g3
F58.0
sg4
g5
sg6
I0
sg7
g47
sg8
I00
sg9
g10
sg11
S'jim.piro@enron.com'
p130
sg13
F0.0
sg14
g15
sg16
g17
sg18
F3.0
sg19
g20
sg21
F16.0
sg22
g49
sg23
I0
sg24
g25
sg26
g50
sg27
F47304.0
sg28
F1.0
sg29
F47304.0
sg30
g51
sg31
g52
sg32
g33
ssS'RIEKER PAULA H'
p131
(dp132
g3
F1328.0
sg4
F214678.0
sg6
I0
sg7
F33271.0
sg8
I01
sg9
g10
sg11
S'paula.rieker@enron.com'
p133
sg13
F35.0
sg14
F-100000.0
sg16
g17
sg18
F1258.0
sg19
g20
sg21
F82.0
sg22
F1950.0
sg23
I1
sg24
g25
sg26
F700000.0
sg27
F1918887.0
sg28
F48.0
sg29
F283649.0
sg30
F249201.0
sg31
F1099100.0
sg32
F1635238.0
ssS'WHALEY DAVID A'
p134
(dp135
g3
g36
sg4
g5
sg6
I0
sg7
g47
sg8
I00
sg9
g10
sg11
g37
sg13
g38
sg14
g15
sg16
g17
sg18
g39
sg19
g20
sg21
g40
sg22
g49
sg23
I0
sg24
g25
sg26
g50
sg27
F98718.0
sg28
g41
sg29
g74
sg30
g51
sg31
g52
sg32
F98718.0
ssS'BECK SALLY W'
p136
(dp137
g3
F7315.0
sg4
g5
sg6
I0
sg7
F37172.0
sg8
I00
sg9
g10
sg11
S'sally.beck@enron.com'
p138
sg13
F144.0
sg14
g15
sg16
g17
sg18
F2639.0
sg19
g20
sg21
F4343.0
sg22
F566.0
sg23
I0
sg24
g25
sg26
F700000.0
sg27
F126027.0
sg28
F386.0
sg29
F126027.0
sg30
F231330.0
sg31
F969068.0
sg32
g33
ssS'HAUG DAVID L'
p139
(dp140
g3
F573.0
sg4
g5
sg6
I0
sg7
F475.0
sg8
I00
sg9
g10
sg11
S'david.haug@enron.com'
p141
sg13
F4.0
sg14
g15
sg16
g17
sg18
F471.0
sg19
g20
sg21
F19.0
sg22
g49
sg23
I0
sg24
g25
sg26
g50
sg27
F2217299.0
sg28
F7.0
sg29
F2217299.0
sg30
g51
sg31
F475.0
sg32
g33
ssS'ECHOLS JOHN B'
p142
(dp143
g3
g36
sg4
g5
sg6
I0
sg7
F21530.0
sg8
I00
sg9
F2234774.0
sg11
S'john.echols@enron.com'
p144
sg13
g38
sg14
g15
sg16
g17
sg18
g39
sg19
g20
sg21
g40
sg22
F53775.0
sg23
I0
sg24
g25
sg26
F200000.0
sg27
F1008941.0
sg28
g41
sg29
F407503.0
sg30
F182245.0
sg31
F2692324.0
sg32
F601438.0
ssS'MENDELSOHN JOHN'
p145
(dp146
g3
g36
sg4
g5
sg6
I0
sg7
F148.0
sg8
I00
sg9
g10
sg11
g37
sg13
g38
sg14
F-103750.0
sg16
g17
sg18
g39
sg19
g20
sg21
g40
sg22
g49
sg23
I0
sg24
F103750.0
sg26
g50
sg27
g78
sg28
g41
sg29
g74
sg30
g51
sg31
F148.0
sg32
g33
ssS'HICKERSON GARY J'
p147
(dp148
g3
F1320.0
sg4
g5
sg6
I0
sg7
F98849.0
sg8
I00
sg9
F69223.0
sg11
S'gary.hickerson@enron.com'
p149
sg13
F40.0
sg14
g15
sg16
g17
sg18
F900.0
sg19
g20
sg21
F27.0
sg22
F1936.0
sg23
I0
sg24
g25
sg26
F1700000.0
sg27
F441096.0
sg28
F1.0
sg29
F441096.0
sg30
F211788.0
sg31
F2081796.0
sg32
g33
ssS'CLINE KENNETH W'
p150
(dp151
g3
g36
sg4
g5
sg6
I0
sg7
g47
sg8
I00
sg9
g10
sg11
g37
sg13
g38
sg14
g15
sg16
F-472568.0
sg18
g39
sg19
g20
sg21
g40
sg22
g49
sg23
I0
sg24
g25
sg26
g50
sg27
F189518.0
sg28
g41
sg29
F662086.0
sg30
g51
sg31
g52
sg32
g33
ssS'LEWIS RICHARD'
p152
(dp153
g3
F952.0
sg4
g5
sg6
I0
sg7
g47
sg8
I00
sg9
g10
sg11
S'richard.lewis@enron.com'
p154
sg13
F10.0
sg14
g15
sg16
g17
sg18
F739.0
sg19
g20
sg21
F26.0
sg22
g49
sg23
I0
sg24
g25
sg26
g50
sg27
F850477.0
sg28
F0.0
sg29
g74
sg30
g51
sg31
g52
sg32
F850477.0
ssS'HAYES ROBERT E'
p155
(dp156
g3
F504.0
sg4
F7961.0
sg6
I0
sg7
g47
sg8
I00
sg9
g10
sg11
S'robert.hayes@enron.com'
p157
sg13
F16.0
sg14
g15
sg16
g17
sg18
F50.0
sg19
g20
sg21
F12.0
sg22
g49
sg23
I0
sg24
g25
sg26
g50
sg27
F151418.0
sg28
F0.0
sg29
F151418.0
sg30
g51
sg31
F7961.0
sg32
g33
ssS'KOPPER MICHAEL J'
p158
(dp159
g3
g36
sg4
g5
sg6
I0
sg7
F118134.0
sg8
I01
sg9
F602671.0
sg11
S'michael.kopper@enron.com'
p160
sg13
g38
sg14
g15
sg16
g17
sg18
g39
sg19
g20
sg21
g40
sg22
F907502.0
sg23
I0
sg24
g25
sg26
F800000.0
sg27
F985032.0
sg28
g41
sg29
F985032.0
sg30
F224305.0
sg31
F2652612.0
sg32
g33
ssS'LEFF DANIEL P'
p161
(dp162
g3
F2822.0
sg4
g5
sg6
I0
sg7
g47
sg8
I00
sg9
F1387399.0
sg11
S'dan.leff@enron.com'
p163
sg13
F67.0
sg14
g15
sg16
g17
sg18
F2672.0
sg19
g20
sg21
F63.0
sg22
F3083.0
sg23
I0
sg24
g25
sg26
F1000000.0
sg27
F360528.0
sg28
F14.0
sg29
F360528.0
sg30
F273746.0
sg31
F2664228.0
sg32
g33
ssS'LAVORATO JOHN J'
p164
(dp165
g3
F7259.0
sg4
g5
sg6
I0
sg7
F49537.0
sg8
I00
sg9
F2035380.0
sg11
S'john.lavorato@enron.com'
p166
sg13
F528.0
sg14
g15
sg16
g17
sg18
F3962.0
sg19
g20
sg21
F2585.0
sg22
F1552.0
sg23
I0
sg24
g25
sg26
F8000000.0
sg27
F5167144.0
sg28
F411.0
sg29
F1008149.0
sg30
F339288.0
sg31
F10425757.0
sg32
F4158995.0
ssS'BERBERIAN DAVID'
p167
(dp168
g3
g36
sg4
g5
sg6
I0
sg7
F11892.0
sg8
I00
sg9
g10
sg11
S'david.berberian@enron.com'
p169
sg13
g38
sg14
g15
sg16
g17
sg18
g39
sg19
g20
sg21
g40
sg22
g49
sg23
I0
sg24
g25
sg26
g50
sg27
F2493616.0
sg28
g41
sg29
F869220.0
sg30
F216582.0
sg31
F228474.0
sg32
F1624396.0
ssS'DETMERING TIMOTHY J'
p170
(dp171
g3
g36
sg4
F875307.0
sg6
I0
sg7
F52255.0
sg8
I00
sg9
F415657.0
sg11
S'timothy.detmering@enron.com'
p172
sg13
g38
sg14
F-775241.0
sg16
F-315068.0
sg18
g39
sg19
g20
sg21
g40
sg22
F1105.0
sg23
I0
sg24
g25
sg26
F425000.0
sg27
F2027865.0
sg28
g41
sg29
F315068.0
sg30
F210500.0
sg31
F1204583.0
sg32
F2027865.0
ssS'WAKEHAM JOHN'
p173
(dp174
g3
g36
sg4
g5
sg6
I0
sg7
F103773.0
sg8
I00
sg9
g10
sg11
g37
sg13
g38
sg14
g15
sg16
g17
sg18
g39
sg19
g20
sg21
g40
sg22
g49
sg23
I0
sg24
F109298.0
sg26
g50
sg27
g78
sg28
g41
sg29
g74
sg30
g51
sg31
F213071.0
sg32
g33
ssS'GOLD JOSEPH'
p175
(dp176
g3
g36
sg4
g5
sg6
I0
sg7
g47
sg8
I00
sg9
F304805.0
sg11
S'joe.gold@enron.com'
p177
sg13
g38
sg14
g15
sg16
g17
sg18
g39
sg19
g20
sg21
g40
sg22
F819288.0
sg23
I0
sg24
g25
sg26
F750000.0
sg27
F877611.0
sg28
g41
sg29
F441096.0
sg30
F272880.0
sg31
F2146973.0
sg32
F436515.0
ssS'BANNANTINE JAMES M'
p178
(dp179
g3
F566.0
sg4
g5
sg6
I0
sg7
F56301.0
sg8
I00
sg9
g10
sg11
S'james.bannantine@enron.com'
p180
sg13
F39.0
sg14
F-5104.0
sg16
F-560222.0
sg18
F465.0
sg19
g20
sg21
F29.0
sg22
F864523.0
sg23
I0
sg24
g25
sg26
g50
sg27
F5243487.0
sg28
F0.0
sg29
F1757552.0
sg30
F477.0
sg31
F916197.0
sg32
F4046157.0
ssS'DUNCAN JOHN H'
p181
(dp182
g3
g36
sg4
g5
sg6
I0
sg7
g47
sg8
I00
sg9
g10
sg11
g37
sg13
g38
sg14
F-25000.0
sg16
g17
sg18
g39
sg19
g20
sg21
g40
sg22
g49
sg23
I0
sg24
F102492.0
sg26
g50
sg27
F371750.0
sg28
g41
sg29
g74
sg30
g51
sg31
F77492.0
sg32
F371750.0
ssS'SHAPIRO RICHARD S'
p183
(dp184
g3
F15149.0
sg4
g5
sg6
I0
sg7
F137767.0
sg8
I00
sg9
g10
sg11
S'richard.shapiro@enron.com'
p185
sg13
F74.0
sg14
g15
sg16
g17
sg18
F4527.0
sg19
g20
sg21
F1215.0
sg22
F705.0
sg23
I0
sg24
g25
sg26
F650000.0
sg27
F987001.0
sg28
F65.0
sg29
F379164.0
sg30
F269076.0
sg31
F1057548.0
sg32
F607837.0
ssS'SHERRIFF JOHN R'
p186
(dp187
g3
F3187.0
sg4
g5
sg6
I0
sg7
g47
sg8
I00
sg9
F554422.0
sg11
S'john.sherriff@enron.com'
p188
sg13
F28.0
sg14
g15
sg16
g17
sg18
F2103.0
sg19
g20
sg21
F92.0
sg22
F1852186.0
sg23
I0
sg24
g25
sg26
F1500000.0
sg27
F3128982.0
sg28
F23.0
sg29
F1293424.0
sg30
F428780.0
sg31
F4335388.0
sg32
F1835558.0
ssS'SHELBY REX'
p189
(dp190
g3
F225.0
sg4
g5
sg6
I0
sg7
F22884.0
sg8
I01
sg9
g10
sg11
S'rex.shelby@enron.com'
p191
sg13
F13.0
sg14
F-4167.0
sg16
g17
sg18
F91.0
sg19
g20
sg21
F39.0
sg22
F1573324.0
sg23
I0
sg24
g25
sg26
F200000.0
sg27
F2493616.0
sg28
F14.0
sg29
F869220.0
sg30
F211844.0
sg31
F2003885.0
sg32
F1624396.0
ssS'LEMAISTRE CHARLES'
p192
(dp193
g3
g36
sg4
g5
sg6
I0
sg7
g47
sg8
I00
sg9
g10
sg11
g37
sg13
g38
sg14
F-25000.0
sg16
g17
sg18
g39
sg19
g20
sg21
g40
sg22
g49
sg23
I0
sg24
F112492.0
sg26
g50
sg27
F412878.0
sg28
g41
sg29
g74
sg30
g51
sg31
F87492.0
sg32
F412878.0
ssS'DEFFNER JOSEPH M'
p194
(dp195
g3
F714.0
sg4
g5
sg6
I0
sg7
F41626.0
sg8
I00
sg9
F335349.0
sg11
S'joseph.deffner@enron.com'
p196
sg13
F115.0
sg14
g15
sg16
g17
sg18
F552.0
sg19
g20
sg21
F74.0
sg22
F25553.0
sg23
I0
sg24
g25
sg26
F600000.0
sg27
F159211.0
sg28
F4.0
sg29
F141833.0
sg30
F206121.0
sg31
F1208649.0
sg32
F17378.0
ssS'KISHKILL JOSEPH G'
p197
(dp198
g3
g36
sg4
g5
sg6
I0
sg7
F116335.0
sg8
I00
sg9
g10
sg11
S'joe.kishkill@enron.com'
p199
sg13
g38
sg14
F-51042.0
sg16
g17
sg18
g39
sg19
g20
sg21
g40
sg22
F465357.0
sg23
I0
sg24
g25
sg26
g50
sg27
F1034346.0
sg28
g41
sg29
F1034346.0
sg30
F174246.0
sg31
F704896.0
sg32
g33
ssS'WHALLEY LAWRENCE G'
p200
(dp201
g3
F6019.0
sg4
g5
sg6
I0
sg7
F57838.0
sg8
I00
sg9
F808346.0
sg11
S'greg.whalley@enron.com'
p202
sg13
F186.0
sg14
g15
sg16
g17
sg18
F3920.0
sg19
g20
sg21
F556.0
sg22
F301026.0
sg23
I0
sg24
g25
sg26
F3000000.0
sg27
F6079137.0
sg28
F24.0
sg29
F2796177.0
sg30
F510364.0
sg31
F4677574.0
sg32
F3282960.0
ssS'MCCARTY DANNY J'
p203
(dp204
g3
F1433.0
sg4
g5
sg6
I0
sg7
g47
sg8
I00
sg9
g10
sg11
S'danny.mccarty@enron.com'
p205
sg13
F25.0
sg14
g15
sg16
g17
sg18
F508.0
sg19
g20
sg21
F215.0
sg22
g49
sg23
I0
sg24
g25
sg26
g50
sg27
F758931.0
sg28
F2.0
sg29
F94556.0
sg30
g51
sg31
g52
sg32
F664375.0
ssS'MCCONNELL MICHAEL S'
p206
(dp207
g3
F3329.0
sg4
g5
sg6
I0
sg7
F81364.0
sg8
I00
sg9
F554422.0
sg11
S'mike.mcconnell@enron.com'
p208
sg13
F92.0
sg14
g15
sg16
g17
sg18
F2189.0
sg19
g20
sg21
F2742.0
sg22
F540.0
sg23
I0
sg24
g25
sg26
F1100000.0
sg27
F3101279.0
sg28
F194.0
sg29
F1478269.0
sg30
F365038.0
sg31
F2101364.0
sg32
F1623010.0
ssS'DELAINEY DAVID W'
p209
(dp210
g3
F3093.0
sg4
g5
sg6
I2
sg7
F86174.0
sg8
I01
sg9
F1294981.0
sg11
S'david.delainey@enron.com'
p211
sg13
F66.0
sg14
g15
sg16
g17
sg18
F2097.0
sg19
g20
sg21
F3069.0
sg22
F1661.0
sg23
I0
sg24
g25
sg26
F3000000.0
sg27
F3614261.0
sg28
F609.0
sg29
F1323148.0
sg30
F365163.0
sg31
F4747979.0
sg32
F2291113.0
ssS'SULLIVAN-SHAKLOVITZ COLLEEN'
p212
(dp213
g3
g36
sg4
F181993.0
sg6
I0
sg7
g47
sg8
I00
sg9
F554422.0
sg11
g37
sg13
g38
sg14
g15
sg16
g17
sg18
g39
sg19
g20
sg21
g40
sg22
F162.0
sg23
I0
sg24
g25
sg26
F100000.0
sg27
F1362375.0
sg28
g41
sg29
g74
sg30
F162779.0
sg31
F999356.0
sg32
F1362375.0
ssS'WROBEL BRUCE'
p214
(dp215
g3
g36
sg4
g5
sg6
I0
sg7
g47
sg8
I00
sg9
g10
sg11
g37
sg13
g38
sg14
g15
sg16
g17
sg18
g39
sg19
g20
sg21
g40
sg22
g49
sg23
I0
sg24
g25
sg26
g50
sg27
F139130.0
sg28
g41
sg29
g74
sg30
g51
sg31
g52
sg32
F139130.0
ssS'LINDHOLM TOD A'
p216
(dp217
g3
g36
sg4
F204075.0
sg6
I0
sg7
F57727.0
sg8
I00
sg9
F175000.0
sg11
S'tod.lindholm@enron.com'
p218
sg13
g38
sg14
g15
sg16
g17
sg18
g39
sg19
g20
sg21
g40
sg22
F2630.0
sg23
I0
sg24
g25
sg26
F200000.0
sg27
F3064208.0
sg28
g41
sg29
F514847.0
sg30
F236457.0
sg31
F875889.0
sg32
F2549361.0
ssS'MEYER JEROME J'
p219
(dp220
g3
g36
sg4
g5
sg6
I0
sg7
F2151.0
sg8
I00
sg9
g10
sg11
g37
sg13
g38
sg14
F-38346.0
sg16
g17
sg18
g39
sg19
g20
sg21
g40
sg22
g49
sg23
I0
sg24
F38346.0
sg26
g50
sg27
g78
sg28
g41
sg29
g74
sg30
g51
sg31
F2151.0
sg32
g33
ssS'LAY KENNETH L'
p221
(dp222
g3
F4273.0
sg4
F202911.0
sg6
I0
sg7
F99832.0
sg8
I01
sg9
F3600000.0
sg11
S'kenneth.lay@enron.com'
p223
sg13
F123.0
sg14
F-300000.0
sg16
g17
sg18
F2411.0
sg19
F81525000.0
sg21
F36.0
sg22
F10359729.0
sg23
I0
sg24
g25
sg26
F7000000.0
sg27
F49110078.0
sg28
F16.0
sg29
F14761694.0
sg30
F1072321.0
sg31
F103559793.0
sg32
F34348384.0
ssS'BUTTS ROBERT H'
p224
(dp225
g3
g36
sg4
g5
sg6
I0
sg7
F9410.0
sg8
I00
sg9
F175000.0
sg11
S'bob.butts@enron.com'
p226
sg13
g38
sg14
F-75000.0
sg16
g17
sg18
g39
sg19
g20
sg21
g40
sg22
F150656.0
sg23
I0
sg24
g25
sg26
F750000.0
sg27
F417619.0
sg28
g41
sg29
F417619.0
sg30
F261516.0
sg31
F1271582.0
sg32
g33
ssS'OLSON CINDY K'
p227
(dp228
g3
F1184.0
sg4
F77716.0
sg6
I0
sg7
F63791.0
sg8
I00
sg9
F100000.0
sg11
S'cindy.olson@enron.com'
p229
sg13
F20.0
sg14
g15
sg16
g17
sg18
F856.0
sg19
g20
sg21
F52.0
sg22
F972.0
sg23
I0
sg24
g25
sg26
F750000.0
sg27
F2606763.0
sg28
F15.0
sg29
F969729.0
sg30
F329078.0
sg31
F1321557.0
sg32
F1637034.0
ssS'MCDONALD REBECCA'
p230
(dp231
g3
F894.0
sg4
g5
sg6
I0
sg7
g47
sg8
I00
sg9
g10
sg11
S'rebecca.mcdonald@enron.com'
p232
sg13
F54.0
sg14
g15
sg16
g17
sg18
F720.0
sg19
g20
sg21
F13.0
sg22
g49
sg23
I0
sg24
g25
sg26
g50
sg27
F1691366.0
sg28
F1.0
sg29
F934065.0
sg30
g51
sg31
g52
sg32
F757301.0
ssS'CUMBERLAND MICHAEL S'
p233
(dp234
g3
g36
sg4
g5
sg6
I0
sg7
F22344.0
sg8
I00
sg9
F275000.0
sg11
g37
sg13
g38
sg14
g15
sg16
g17
sg18
g39
sg19
g20
sg21
g40
sg22
F713.0
sg23
I0
sg24
g25
sg26
F325000.0
sg27
F207940.0
sg28
g41
sg29
F207940.0
sg30
F184899.0
sg31
F807956.0
sg32
g33
ssS'GAHN ROBERT S'
p235
(dp236
g3
g36
sg4
F73122.0
sg6
I0
sg7
F50080.0
sg8
I00
sg9
g10
sg11
g37
sg13
g38
sg14
F-1042.0
sg16
g17
sg18
g39
sg19
g20
sg21
g40
sg22
F76547.0
sg23
I0
sg24
g25
sg26
F509870.0
sg27
F318607.0
sg28
g41
sg29
F235370.0
sg30
F192008.0
sg31
F900585.0
sg32
F83237.0
ssS'MCCLELLAN GEORGE'
p237
(dp238
g3
F1744.0
sg4
g5
sg6
I0
sg7
F228763.0
sg8
I00
sg9
g10
sg11
S'george.mcclellan@enron.com'
p239
sg13
F52.0
sg14
F-125000.0
sg16
g17
sg18
F1469.0
sg19
g20
sg21
F49.0
sg22
F51587.0
sg23
I0
sg24
g25
sg26
F900000.0
sg27
F947861.0
sg28
F0.0
sg29
F441096.0
sg30
F263413.0
sg31
F1318763.0
sg32
F506765.0
ssS'HERMANN ROBERT J'
p240
(dp241
g3
g36
sg4
g5
sg6
I0
sg7
F48357.0
sg8
I00
sg9
F150000.0
sg11
S'robert.hermann@enron.com'
p242
sg13
g38
sg14
F-280000.0
sg16
g17
sg18
g39
sg19
g20
sg21
g40
sg22
F416441.0
sg23
I0
sg24
g25
sg26
F700000.0
sg27
F668132.0
sg28
g41
sg29
F480632.0
sg30
F262663.0
sg31
F1297461.0
sg32
F187500.0
ssS'SCRIMSHAW MATTHEW'
p243
(dp244
g3
g36
sg4
g5
sg6
I0
sg7
g47
sg8
I00
sg9
g10
sg11
S'matthew.scrimshaw@enron.com'
p245
sg13
g38
sg14
g15
sg16
g17
sg18
g39
sg19
g20
sg21
g40
sg22
g49
sg23
I0
sg24
g25
sg26
g50
sg27
F759557.0
sg28
g41
sg29
g74
sg30
g51
sg31
g52
sg32
F759557.0
ssS'GATHMANN WILLIAM D'
p246
(dp247
g3
g36
sg4
g5
sg6
I0
sg7
g47
sg8
I00
sg9
g10
sg11
g37
sg13
g38
sg14
g15
sg16
F-72419.0
sg18
g39
sg19
g20
sg21
g40
sg22
g49
sg23
I0
sg24
g25
sg26
g50
sg27
F1945360.0
sg28
g41
sg29
F264013.0
sg30
g51
sg31
g52
sg32
F1753766.0
ssS'HAEDICKE MARK E'
p248
(dp249
g3
F4009.0
sg4
F2157527.0
sg6
I0
sg7
F76169.0
sg8
I00
sg9
F983346.0
sg11
S'mark.haedicke@enron.com'
p250
sg13
F180.0
sg14
F-934484.0
sg16
F-329825.0
sg18
F1847.0
sg19
g20
sg21
F1941.0
sg22
F52382.0
sg23
I0
sg24
g25
sg26
F1150000.0
sg27
F803094.0
sg28
F61.0
sg29
F524169.0
sg30
F374125.0
sg31
F3859065.0
sg32
F608750.0
ssS'BOWEN JR RAYMOND M'
p251
(dp252
g3
F1858.0
sg4
g5
sg6
I0
sg7
F65907.0
sg8
I01
sg9
F974293.0
sg11
S'raymond.bowen@enron.com'
p253
sg13
F140.0
sg14
F-833.0
sg16
g17
sg18
F1593.0
sg19
g20
sg21
F27.0
sg22
F1621.0
sg23
I0
sg24
g25
sg26
F1350000.0
sg27
F252055.0
sg28
F15.0
sg29
F252055.0
sg30
F278601.0
sg31
F2669589.0
sg32
g33
ssS'GILLIS JOHN'
p254
(dp255
g3
g36
sg4
g5
sg6
I0
sg7
g47
sg8
I00
sg9
g10
sg11
g37
sg13
g38
sg14
g15
sg16
g17
sg18
g39
sg19
g20
sg21
g40
sg22
g49
sg23
I0
sg24
g25
sg26
g50
sg27
F85641.0
sg28
g41
sg29
F75838.0
sg30
g51
sg31
g52
sg32
F9803.0
ssS'FITZGERALD JAY L'
p256
(dp257
g3
F936.0
sg4
g5
sg6
I0
sg7
F23870.0
sg8
I00
sg9
F556416.0
sg11
S'jay.fitzgerald@enron.com'
p258
sg13
F1.0
sg14
g15
sg16
g17
sg18
F723.0
sg19
g20
sg21
F16.0
sg22
F285414.0
sg23
I0
sg24
g25
sg26
F350000.0
sg27
F1621236.0
sg28
F8.0
sg29
F956775.0
sg30
F199157.0
sg31
F1414857.0
sg32
F664461.0
ssS'MORAN MICHAEL P'
p259
(dp260
g3
F672.0
sg4
g5
sg6
I0
sg7
g47
sg8
I00
sg9
g10
sg11
S'michael.moran@enron.com'
p261
sg13
F0.0
sg14
g15
sg16
g17
sg18
F127.0
sg19
g20
sg21
F19.0
sg22
g49
sg23
I0
sg24
g25
sg26
g50
sg27
F221141.0
sg28
F0.0
sg29
F161602.0
sg30
g51
sg31
g52
sg32
F59539.0
ssS'REDMOND BRIAN L'
p262
(dp263
g3
F1671.0
sg4
g5
sg6
I0
sg7
F14689.0
sg8
I00
sg9
g10
sg11
S'brian.redmond@enron.com'
p264
sg13
F204.0
sg14
g15
sg16
g17
sg18
F1063.0
sg19
g20
sg21
F221.0
sg22
g49
sg23
I0
sg24
g25
sg26
g50
sg27
F7890324.0
sg28
F49.0
sg29
F381285.0
sg30
F96840.0
sg31
F111529.0
sg32
F7509039.0
ssS'BAZELIDES PHILIP J'
p265
(dp266
g3
g36
sg4
F684694.0
sg6
I0
sg7
g47
sg8
I00
sg9
F93750.0
sg11
g37
sg13
g38
sg14
g15
sg16
g17
sg18
g39
sg19
g20
sg21
g40
sg22
F874.0
sg23
I0
sg24
g25
sg26
g50
sg27
F1599641.0
sg28
g41
sg29
g74
sg30
F80818.0
sg31
F860136.0
sg32
F1599641.0
ssS'BELDEN TIMOTHY N'
p267
(dp268
g3
F7991.0
sg4
F2144013.0
sg6
I0
sg7
F17355.0
sg8
I01
sg9
g10
sg11
S'tim.belden@enron.com'
p269
sg13
F228.0
sg14
F-2334434.0
sg16
g17
sg18
F5521.0
sg19
g20
sg21
F484.0
sg22
F210698.0
sg23
I0
sg24
g25
sg26
F5249999.0
sg27
F1110705.0
sg28
F108.0
sg29
F157569.0
sg30
F213999.0
sg31
F5501630.0
sg32
F953136.0
ssS'DURAN WILLIAM D'
p270
(dp271
g3
F904.0
sg4
g5
sg6
I0
sg7
F25785.0
sg8
I00
sg9
F1105218.0
sg11
S'w.duran@enron.com'
p272
sg13
F106.0
sg14
g15
sg16
g17
sg18
F599.0
sg19
g20
sg21
F12.0
sg22
F1568.0
sg23
I0
sg24
g25
sg26
F750000.0
sg27
F1640910.0
sg28
F3.0
sg29
F189041.0
sg30
F210692.0
sg31
F2093263.0
sg32
F1451869.0
ssS'THORN TERENCE H'
p273
(dp274
g3
F266.0
sg4
F16586.0
sg6
I0
sg7
F46145.0
sg8
I00
sg9
F200000.0
sg11
S'terence.thorn@enron.com'
p275
sg13
F0.0
sg14
g15
sg16
g17
sg18
F73.0
sg19
g20
sg21
F41.0
sg22
F426629.0
sg23
I0
sg24
g25
sg26
g50
sg27
F4817796.0
sg28
F0.0
sg29
F365320.0
sg30
F222093.0
sg31
F911453.0
sg32
F4452476.0
ssS'FASTOW ANDREW S'
p276
(dp277
g3
g36
sg4
g5
sg6
I0
sg7
F55921.0
sg8
I01
sg9
F1736055.0
sg11
S'andrew.fastow@enron.com'
p278
sg13
g38
sg14
F-1386055.0
sg16
g17
sg18
g39
sg19
g20
sg21
g40
sg22
F277464.0
sg23
I0
sg24
g25
sg26
F1300000.0
sg27
F1794412.0
sg28
g41
sg29
F1794412.0
sg30
F440698.0
sg31
F2424083.0
sg32
g33
ssS'FOY JOE'
p279
(dp280
g3
F57.0
sg4
F181755.0
sg6
I0
sg7
g47
sg8
I00
sg9
g10
sg11
S'tracy.foy@enron.com'
p281
sg13
F0.0
sg14
g15
sg16
g17
sg18
F2.0
sg19
g20
sg21
F13.0
sg22
g49
sg23
I0
sg24
g25
sg26
g50
sg27
F343434.0
sg28
F0.0
sg29
g74
sg30
g51
sg31
F181755.0
sg32
F343434.0
ssS'CALGER CHRISTOPHER F'
p282
(dp283
g3
F2598.0
sg4
g5
sg6
I0
sg7
F35818.0
sg8
I01
sg9
F375304.0
sg11
S'christopher.calger@enron.com'
p284
sg13
F199.0
sg14
F-262500.0
sg16
g17
sg18
F2188.0
sg19
g20
sg21
F144.0
sg22
F486.0
sg23
I0
sg24
g25
sg26
F1250000.0
sg27
F126027.0
sg28
F25.0
sg29
F126027.0
sg30
F240189.0
sg31
F1639297.0
sg32
g33
ssS'RICE KENNETH D'
p285
(dp286
g3
F905.0
sg4
g5
sg6
I0
sg7
F46950.0
sg8
I01
sg9
F1617011.0
sg11
S'ken.rice@enron.com'
p287
sg13
F42.0
sg14
F-3504386.0
sg16
g17
sg18
F864.0
sg19
g20
sg21
F18.0
sg22
F174839.0
sg23
I0
sg24
g25
sg26
F1750000.0
sg27
F22542539.0
sg28
F4.0
sg29
F2748364.0
sg30
F420636.0
sg31
F505050.0
sg32
F19794175.0
ssS'KAMINSKI WINCENTY J'
p288
(dp289
g3
F4607.0
sg4
g5
sg6
I0
sg7
F83585.0
sg8
I00
sg9
F323466.0
sg11
S'vince.kaminski@enron.com'
p290
sg13
F41.0
sg14
g15
sg16
g17
sg18
F583.0
sg19
g20
sg21
F14368.0
sg22
F4669.0
sg23
I0
sg24
g25
sg26
F400000.0
sg27
F976037.0
sg28
F171.0
sg29
F126027.0
sg30
F275101.0
sg31
F1086821.0
sg32
F850010.0
ssS'COX DAVID'
p291
(dp292
g3
F102.0
sg4
g5
sg6
I0
sg7
F27861.0
sg8
I00
sg9
g10
sg11
S'chip.cox@enron.com'
p293
sg13
F0.0
sg14
F-41250.0
sg16
g17
sg18
F71.0
sg19
g20
sg21
F33.0
sg22
F494.0
sg23
I0
sg24
g25
sg26
F800000.0
sg27
F495633.0
sg28
F4.0
sg29
F378082.0
sg30
F314288.0
sg31
F1101393.0
sg32
F117551.0
ssS'OVERDYKE JR JERE C'
p294
(dp295
g3
g36
sg4
g5
sg6
I0
sg7
F18834.0
sg8
I00
sg9
F135836.0
sg11
S'jere.overdyke@enron.com'
p296
sg13
g38
sg14
g15
sg16
g17
sg18
g39
sg19
g20
sg21
g40
sg22
F176.0
sg23
I0
sg24
g25
sg26
g50
sg27
F7307594.0
sg28
g41
sg29
F2041016.0
sg30
F94941.0
sg31
F249787.0
sg32
F5266578.0
ssS'PEREIRA PAULO V. FERRAZ'
p297
(dp298
g3
g36
sg4
g5
sg6
I0
sg7
F27942.0
sg8
I00
sg9
g10
sg11
g37
sg13
g38
sg14
F-101250.0
sg16
g17
sg18
g39
sg19
g20
sg21
g40
sg22
g49
sg23
I0
sg24
F101250.0
sg26
g50
sg27
g78
sg28
g41
sg29
g74
sg30
g51
sg31
F27942.0
sg32
g33
ssS'STABLER FRANK'
p299
(dp300
g3
g36
sg4
g5
sg6
I0
sg7
F16514.0
sg8
I00
sg9
g10
sg11
S'frank.stabler@enron.com'
p301
sg13
g38
sg14
g15
sg16
g17
sg18
g39
sg19
g20
sg21
g40
sg22
F356071.0
sg23
I0
sg24
g25
sg26
F500000.0
sg27
F511734.0
sg28
g41
sg29
F511734.0
sg30
F239502.0
sg31
F1112087.0
sg32
g33
ssS'SKILLING JEFFREY K'
p302
(dp303
g3
F3627.0
sg4
g5
sg6
I0
sg7
F29336.0
sg8
I01
sg9
F1920000.0
sg11
S'jeff.skilling@enron.com'
p304
sg13
F88.0
sg14
g15
sg16
g17
sg18
F2042.0
sg19
g20
sg21
F108.0
sg22
F22122.0
sg23
I0
sg24
g25
sg26
F5600000.0
sg27
F26093672.0
sg28
F30.0
sg29
F6843672.0
sg30
F1111258.0
sg31
F8682716.0
sg32
F19250000.0
ssS'BLAKE JR. NORMAN P'
p305
(dp306
g3
g36
sg4
g5
sg6
I0
sg7
F1279.0
sg8
I00
sg9
g10
sg11
g37
sg13
g38
sg14
F-113784.0
sg16
g17
sg18
g39
sg19
g20
sg21
g40
sg22
g49
sg23
I0
sg24
F113784.0
sg26
g50
sg27
g78
sg28
g41
sg29
g74
sg30
g51
sg31
F1279.0
sg32
g33
ssS'SHERRICK JEFFREY B'
p307
(dp308
g3
F613.0
sg4
g5
sg6
I0
sg7
g47
sg8
I00
sg9
g10
sg11
S'jeffrey.sherrick@enron.com'
p309
sg13
F39.0
sg14
g15
sg16
g17
sg18
F583.0
sg19
g20
sg21
F25.0
sg22
g49
sg23
I0
sg24
g25
sg26
g50
sg27
F1832468.0
sg28
F18.0
sg29
F405999.0
sg30
g51
sg31
g52
sg32
F1426469.0
ssS'PRENTICE JAMES'
p310
(dp311
g3
g36
sg4
F564348.0
sg6
I0
sg7
g47
sg8
I00
sg9
g10
sg11
S'james.prentice@enron.com'
p312
sg13
g38
sg14
g15
sg16
g17
sg18
g39
sg19
g20
sg21
g40
sg22
g49
sg23
I0
sg24
g25
sg26
g50
sg27
F1095040.0
sg28
g41
sg29
F208809.0
sg30
g51
sg31
F564348.0
sg32
F886231.0
ssS'GRAY RODNEY'
p313
(dp314
g3
g36
sg4
F93585.0
sg6
I0
sg7
g47
sg8
I00
sg9
F365625.0
sg11
g37
sg13
g38
sg14
g15
sg16
g17
sg18
g39
sg19
g20
sg21
g40
sg22
F680833.0
sg23
I0
sg24
g25
sg26
g50
sg27
g78
sg28
g41
sg29
g74
sg30
F6615.0
sg31
F1146658.0
sg32
g33
ssS'PICKERING MARK R'
p315
(dp316
g3
F898.0
sg4
g5
sg6
I0
sg7
F31653.0
sg8
I00
sg9
g10
sg11
S'mark.pickering@enron.com'
p317
sg13
F7.0
sg14
g15
sg16
g17
sg18
F728.0
sg19
F400000.0
sg21
F67.0
sg22
g49
sg23
I0
sg24
g25
sg26
F300000.0
sg27
F28798.0
sg28
F0.0
sg29
g74
sg30
F655037.0
sg31
F1386690.0
sg32
F28798.0
ssS'NOLES JAMES L'
p318
(dp319
g3
g36
sg4
F774401.0
sg6
I0
sg7
g47
sg8
I00
sg9
g10
sg11
g37
sg13
g38
sg14
g15
sg16
F-94556.0
sg18
g39
sg19
g20
sg21
g40
sg22
g49
sg23
I0
sg24
g25
sg26
g50
sg27
F368705.0
sg28
g41
sg29
F463261.0
sg30
g51
sg31
F774401.0
sg32
g33
ssS'KEAN STEVEN J'
p320
(dp321
g3
F12754.0
sg4
g5
sg6
I0
sg7
F41953.0
sg8
I00
sg9
F300000.0
sg11
S'steven.kean@enron.com'
p322
sg13
F140.0
sg14
g15
sg16
g17
sg18
F3639.0
sg19
g20
sg21
F6759.0
sg22
F1231.0
sg23
I0
sg24
g25
sg26
F1000000.0
sg27
F6153642.0
sg28
F387.0
sg29
F4131594.0
sg30
F404338.0
sg31
F1747522.0
sg32
F2022048.0
ssS'FOWLER PEGGY'
p323
(dp324
g3
F517.0
sg4
g5
sg6
I0
sg7
g47
sg8
I00
sg9
g10
sg11
S'kulvinder.fowler@enron.com'
p325
sg13
F0.0
sg14
g15
sg16
g17
sg18
F10.0
sg19
g20
sg21
F36.0
sg22
g49
sg23
I0
sg24
g25
sg26
g50
sg27
F1884748.0
sg28
F0.0
sg29
F560170.0
sg30
g51
sg31
g52
sg32
F1324578.0
ssS'WASAFF GEORGE'
p326
(dp327
g3
F400.0
sg4
F831299.0
sg6
I0
sg7
g47
sg8
I00
sg9
F200000.0
sg11
S'george.wasaff@enron.com'
p328
sg13
F22.0
sg14
F-583325.0
sg16
g17
sg18
F337.0
sg19
g20
sg21
F30.0
sg22
F1425.0
sg23
I0
sg24
g25
sg26
F325000.0
sg27
F2056427.0
sg28
F7.0
sg29
F388167.0
sg30
F259996.0
sg31
F1034395.0
sg32
F1668260.0
ssS'WHITE JR THOMAS E'
p329
(dp330
g3
g36
sg4
g5
sg6
I0
sg7
F81353.0
sg8
I00
sg9
g10
sg11
S'thomas.white@enron.com'
p331
sg13
g38
sg14
g15
sg16
g17
sg18
g39
sg19
g20
sg21
g40
sg22
F1085463.0
sg23
I0
sg24
g25
sg26
F450000.0
sg27
F15144123.0
sg28
g41
sg29
F13847074.0
sg30
F317543.0
sg31
F1934359.0
sg32
F1297049.0
ssS'CHRISTODOULOU DIOMEDES'
p332
(dp333
g3
g36
sg4
g5
sg6
I0
sg7
g47
sg8
I00
sg9
g10
sg11
S'diomedes.christodoulou@enron.com'
p334
sg13
g38
sg14
g15
sg16
g17
sg18
g39
sg19
g20
sg21
g40
sg22
g49
sg23
I0
sg24
g25
sg26
g50
sg27
F6077885.0
sg28
g41
sg29
F950730.0
sg30
g51
sg31
g52
sg32
F5127155.0
ssS'ALLEN PHILLIP K'
p335
(dp336
g3
F2902.0
sg4
F2869717.0
sg6
I0
sg7
F13868.0
sg8
I00
sg9
F304805.0
sg11
S'phillip.allen@enron.com'
p337
sg13
F47.0
sg14
F-3081055.0
sg16
F-126027.0
sg18
F1407.0
sg19
g20
sg21
F2195.0
sg22
F152.0
sg23
I0
sg24
g25
sg26
F4175000.0
sg27
F1729541.0
sg28
F65.0
sg29
F126027.0
sg30
F201955.0
sg31
F4484442.0
sg32
F1729541.0
ssS'SHARP VICTORIA T'
p338
(dp339
g3
F3136.0
sg4
F187469.0
sg6
I0
sg7
F116337.0
sg8
I00
sg9
F422158.0
sg11
S'vicki.sharp@enron.com'
p340
sg13
F24.0
sg14
g15
sg16
g17
sg18
F2477.0
sg19
g20
sg21
F136.0
sg22
F2401.0
sg23
I0
sg24
g25
sg26
F600000.0
sg27
F494136.0
sg28
F6.0
sg29
F213063.0
sg30
F248146.0
sg31
F1576511.0
sg32
F281073.0
ssS'JAEDICKE ROBERT'
p341
(dp342
g3
g36
sg4
g5
sg6
I0
sg7
g47
sg8
I00
sg9
g10
sg11
g37
sg13
g38
sg14
F-25000.0
sg16
F-44093.0
sg18
g39
sg19
g20
sg21
g40
sg22
g49
sg23
I0
sg24
F108750.0
sg26
g50
sg27
F431750.0
sg28
g41
sg29
F44093.0
sg30
g51
sg31
F83750.0
sg32
F431750.0
ssS'WINOKUR JR. HERBERT S'
p343
(dp344
g3
g36
sg4
g5
sg6
I0
sg7
F1413.0
sg8
I00
sg9
g10
sg11
g37
sg13
g38
sg14
F-25000.0
sg16
g17
sg18
g39
sg19
g20
sg21
g40
sg22
g49
sg23
I0
sg24
F108579.0
sg26
g50
sg27
g78
sg28
g41
sg29
g74
sg30
g51
sg31
F84992.0
sg32
g33
ssS'BROWN MICHAEL'
p345
(dp346
g3
F1486.0
sg4
g5
sg6
I0
sg7
F49288.0
sg8
I00
sg9
g10
sg11
S'michael.brown@enron.com'
p347
sg13
F13.0
sg14
g15
sg16
g17
sg18
F761.0
sg19
g20
sg21
F41.0
sg22
g49
sg23
I0
sg24
g25
sg26
g50
sg27
g78
sg28
F1.0
sg29
g74
sg30
g51
sg31
F49288.0
sg32
g33
ssS'BADUM JAMES P'
p348
(dp349
g3
g36
sg4
F178980.0
sg6
I0
sg7
F3486.0
sg8
I00
sg9
g10
sg11
g37
sg13
g38
sg14
g15
sg16
g17
sg18
g39
sg19
g20
sg21
g40
sg22
g49
sg23
I0
sg24
g25
sg26
g50
sg27
F257817.0
sg28
g41
sg29
g74
sg30
g51
sg31
F182466.0
sg32
F257817.0
ssS'HUGHES JAMES A'
p350
(dp351
g3
F719.0
sg4
g5
sg6
I0
sg7
g47
sg8
I00
sg9
g10
sg11
S'james.hughes@enron.com'
p352
sg13
F35.0
sg14
g15
sg16
g17
sg18
F589.0
sg19
g20
sg21
F34.0
sg22
g49
sg23
I0
sg24
g25
sg26
g50
sg27
F1118394.0
sg28
F5.0
sg29
F363428.0
sg30
g51
sg31
g52
sg32
F754966.0
ssS'REYNOLDS LAWRENCE'
p353
(dp354
g3
g36
sg4
F51365.0
sg6
I0
sg7
F8409.0
sg8
I00
sg9
F156250.0
sg11
g37
sg13
g38
sg14
F-200000.0
sg16
F-140264.0
sg18
g39
sg19
g20
sg21
g40
sg22
F202052.0
sg23
I0
sg24
g25
sg26
F100000.0
sg27
F4221891.0
sg28
g41
sg29
F201483.0
sg30
F76399.0
sg31
F394475.0
sg32
F4160672.0
ssS'DIMICHELE RICHARD G'
p355
(dp356
g3
g36
sg4
g5
sg6
I0
sg7
F35812.0
sg8
I00
sg9
F694862.0
sg11
S'richard.dimichele@enron.com'
p357
sg13
g38
sg14
g15
sg16
g17
sg18
g39
sg19
g20
sg21
g40
sg22
F374689.0
sg23
I0
sg24
g25
sg26
F1000000.0
sg27
F8317782.0
sg28
g41
sg29
F126027.0
sg30
F262788.0
sg31
F2368151.0
sg32
F8191755.0
ssS'BHATNAGAR SANJAY'
p358
(dp359
g3
F523.0
sg4
g5
sg6
I0
sg7
g47
sg8
I00
sg9
g10
sg11
S'sanjay.bhatnagar@enron.com'
p360
sg13
F0.0
sg14
g15
sg16
F15456290.0
sg18
F463.0
sg19
g20
sg21
F29.0
sg22
F137864.0
sg23
I0
sg24
F137864.0
sg26
g50
sg27
g78
sg28
F1.0
sg29
F-2604490.0
sg30
g51
sg31
F15456290.0
sg32
F2604490.0
ssS'CARTER REBECCA C'
p361
(dp362
g3
F312.0
sg4
g5
sg6
I0
sg7
g47
sg8
I00
sg9
F75000.0
sg11
S'rebecca.carter@enron.com'
p363
sg13
F29.0
sg14
F-159792.0
sg16
F-307301.0
sg18
F196.0
sg19
g20
sg21
F15.0
sg22
F540.0
sg23
I0
sg24
g25
sg26
F300000.0
sg27
g78
sg28
F7.0
sg29
F307301.0
sg30
F261809.0
sg31
F477557.0
sg32
g33
ssS'BUCHANAN HAROLD G'
p364
(dp365
g3
F1088.0
sg4
g5
sg6
I0
sg7
F600.0
sg8
I00
sg9
F304805.0
sg11
S'john.buchanan@enron.com'
p366
sg13
F0.0
sg14
g15
sg16
g17
sg18
F23.0
sg19
g20
sg21
F125.0
sg22
F1215.0
sg23
I0
sg24
g25
sg26
F500000.0
sg27
F1014505.0
sg28
F0.0
sg29
F189041.0
sg30
F248017.0
sg31
F1054637.0
sg32
F825464.0
ssS'YEAP SOON'
p367
(dp368
g3
g36
sg4
g5
sg6
I0
sg7
F55097.0
sg8
I00
sg9
g10
sg11
g37
sg13
g38
sg14
g15
sg16
g17
sg18
g39
sg19
g20
sg21
g40
sg22
g49
sg23
I0
sg24
g25
sg26
g50
sg27
F192758.0
sg28
g41
sg29
g74
sg30
g51
sg31
F55097.0
sg32
F192758.0
ssS'MURRAY JULIA H'
p369
(dp370
g3
F2192.0
sg4
g5
sg6
I0
sg7
F57580.0
sg8
I00
sg9
F125000.0
sg11
S'julia.murray@enron.com'
p371
sg13
F11.0
sg14
g15
sg16
g17
sg18
F395.0
sg19
g20
sg21
F45.0
sg22
F330.0
sg23
I0
sg24
g25
sg26
F400000.0
sg27
F597461.0
sg28
F2.0
sg29
F196983.0
sg30
F229284.0
sg31
F812194.0
sg32
F400478.0
ssS'GARLAND C KEVIN'
p372
(dp373
g3
F209.0
sg4
g5
sg6
I0
sg7
F48405.0
sg8
I00
sg9
F375304.0
sg11
S'kevin.garland@enron.com'
p374
sg13
F10.0
sg14
g15
sg16
g17
sg18
F178.0
sg19
g20
sg21
F44.0
sg22
F60814.0
sg23
I0
sg24
g25
sg26
F850000.0
sg27
F896153.0
sg28
F27.0
sg29
F259907.0
sg30
F231946.0
sg31
F1566469.0
sg32
F636246.0
ssS'DODSON KEITH'
p375
(dp376
g3
F176.0
sg4
g5
sg6
I0
sg7
F28164.0
sg8
I00
sg9
g10
sg11
S'keith.dodson@enron.com'
p377
sg13
F10.0
sg14
g15
sg16
g17
sg18
F114.0
sg19
g20
sg21
F14.0
sg22
F774.0
sg23
I0
sg24
g25
sg26
F70000.0
sg27
g78
sg28
F3.0
sg29
g74
sg30
F221003.0
sg31
F319941.0
sg32
g33
ssS'YEAGER F SCOTT'
p378
(dp379
g3
g36
sg4
g5
sg6
I0
sg7
F53947.0
sg8
I01
sg9
g10
sg11
S'scott.yeager@enron.com'
p380
sg13
g38
sg14
g15
sg16
g17
sg18
g39
sg19
g20
sg21
g40
sg22
F147950.0
sg23
I0
sg24
g25
sg26
g50
sg27
F11884758.0
sg28
g41
sg29
F3576206.0
sg30
F158403.0
sg31
F360300.0
sg32
F8308552.0
ssS'HIRKO JOSEPH'
p381
(dp382
g3
g36
sg4
F10259.0
sg6
I0
sg7
F77978.0
sg8
I01
sg9
g10
sg11
S'joe.hirko@enron.com'
p383
sg13
g38
sg14
g15
sg16
g17
sg18
g39
sg19
g20
sg21
g40
sg22
F2856.0
sg23
I0
sg24
g25
sg26
g50
sg27
F30766064.0
sg28
g41
sg29
g74
sg30
g51
sg31
F91093.0
sg32
F30766064.0
ssS'DIETRICH JANET R'
p384
(dp385
g3
F2572.0
sg4
g5
sg6
I0
sg7
F3475.0
sg8
I00
sg9
F556416.0
sg11
S'janet.dietrich@enron.com'
p386
sg13
F305.0
sg14
g15
sg16
g17
sg18
F1902.0
sg19
g20
sg21
F63.0
sg22
F473.0
sg23
I0
sg24
g25
sg26
F600000.0
sg27
F1865087.0
sg28
F14.0
sg29
F315068.0
sg30
F250100.0
sg31
F1410464.0
sg32
F1550019.0
ssS'DERRICK JR. JAMES V'
p387
(dp388
g3
F2181.0
sg4
g5
sg6
I0
sg7
F51124.0
sg8
I00
sg9
F484000.0
sg11
S'james.derrick@enron.com'
p389
sg13
F64.0
sg14
F-1284000.0
sg16
F-1787380.0
sg18
F1401.0
sg19
g20
sg21
F909.0
sg22
F7482.0
sg23
I0
sg24
g25
sg26
F800000.0
sg27
F8831913.0
sg28
F20.0
sg29
F1787380.0
sg30
F492375.0
sg31
F550981.0
sg32
F8831913.0
ssS'FREVERT MARK A'
p390
(dp391
g3
F3275.0
sg4
F6426990.0
sg6
I0
sg7
F86987.0
sg8
I00
sg9
F1617011.0
sg11
S'mark.frevert@enron.com'
p392
sg13
F242.0
sg14
F-3367011.0
sg16
g17
sg18
F2979.0
sg19
F2000000.0
sg21
F21.0
sg22
F7427621.0
sg23
I0
sg24
g25
sg26
F2000000.0
sg27
F14622185.0
sg28
F6.0
sg29
F4188667.0
sg30
F1060932.0
sg31
F17252530.0
sg32
F10433518.0
ssS'PAI LOU L'
p393
(dp394
g3
g36
sg4
g5
sg6
I0
sg7
F32047.0
sg8
I00
sg9
g10
sg11
S'lou.pai@enron.com'
p395
sg13
g38
sg14
g15
sg16
g17
sg18
g39
sg19
g20
sg21
g40
sg22
F1829457.0
sg23
I0
sg24
g25
sg26
F1000000.0
sg27
F23817930.0
sg28
g41
sg29
F8453763.0
sg30
F261879.0
sg31
F3123383.0
sg32
F15364167.0
ssS'BAY FRANKLIN R'
p396
(dp397
g3
g36
sg4
F260455.0
sg6
I0
sg7
F129142.0
sg8
I00
sg9
g10
sg11
S'frank.bay@enron.com'
p398
sg13
g38
sg14
F-201641.0
sg16
F-82782.0
sg18
g39
sg19
g20
sg21
g40
sg22
F69.0
sg23
I0
sg24
g25
sg26
F400000.0
sg27
F63014.0
sg28
g41
sg29
F145796.0
sg30
F239671.0
sg31
F827696.0
sg32
g33
ssS'HAYSLETT RODERICK J'
p399
(dp400
g3
F2649.0
sg4
g5
sg6
I0
sg7
g47
sg8
I00
sg9
g10
sg11
S'rod.hayslett@enron.com'
p401
sg13
F35.0
sg14
g15
sg16
g17
sg18
F571.0
sg19
g20
sg21
F1061.0
sg22
g49
sg23
I0
sg24
g25
sg26
g50
sg27
F346663.0
sg28
F38.0
sg29
F346663.0
sg30
g51
sg31
g52
sg32
g33
ssS'FUGH JOHN L'
p402
(dp403
g3
g36
sg4
F50591.0
sg6
I0
sg7
g47
sg8
I00
sg9
g10
sg11
g37
sg13
g38
sg14
g15
sg16
g17
sg18
g39
sg19
g20
sg21
g40
sg22
g49
sg23
I0
sg24
g25
sg26
g50
sg27
F176378.0
sg28
g41
sg29
g74
sg30
g51
sg31
F50591.0
sg32
F176378.0
ssS'FALLON JAMES B'
p404
(dp405
g3
F1755.0
sg4
g5
sg6
I0
sg7
F95924.0
sg8
I00
sg9
F374347.0
sg11
S'jim.fallon@enron.com'
p406
sg13
F42.0
sg14
g15
sg16
g17
sg18
F1604.0
sg19
g20
sg21
F75.0
sg22
F401481.0
sg23
I0
sg24
g25
sg26
F2500000.0
sg27
F2332399.0
sg28
F37.0
sg29
F1392142.0
sg30
F304588.0
sg31
F3676340.0
sg32
F940257.0
ssS'KOENIG MARK E'
p407
(dp408
g3
F2374.0
sg4
g5
sg6
I2
sg7
F127017.0
sg8
I01
sg9
F300000.0
sg11
S'mark.koenig@enron.com'
p409
sg13
F53.0
sg14
g15
sg16
g17
sg18
F2271.0
sg19
g20
sg21
F61.0
sg22
F150458.0
sg23
I1
sg24
g25
sg26
F700000.0
sg27
F1920055.0
sg28
F15.0
sg29
F1248318.0
sg30
F309946.0
sg31
F1587421.0
sg32
F671737.0
ssS'SAVAGE FRANK'
p410
(dp411
g3
g36
sg4
g5
sg6
I0
sg7
g47
sg8
I00
sg9
g10
sg11
g37
sg13
g38
sg14
F-121284.0
sg16
g17
sg18
g39
sg19
g20
sg21
g40
sg22
g49
sg23
I0
sg24
F125034.0
sg26
g50
sg27
g78
sg28
g41
sg29
g74
sg30
g51
sg31
F3750.0
sg32
g33
ssS'IZZO LAWRENCE L'
p412
(dp413
g3
F496.0
sg4
g5
sg6
I0
sg7
F28093.0
sg8
I00
sg9
F312500.0
sg11
S'larry.izzo@enron.com'
p414
sg13
F28.0
sg14
g15
sg16
g17
sg18
F437.0
sg19
g20
sg21
F19.0
sg22
F1553729.0
sg23
I0
sg24
g25
sg26
g50
sg27
F5819980.0
sg28
F5.0
sg29
F3654808.0
sg30
F85274.0
sg31
F1979596.0
sg32
F2165172.0
ssS'TILNEY ELIZABETH A'
p415
(dp416
g3
F460.0
sg4
g5
sg6
I0
sg7
g47
sg8
I00
sg9
F275000.0
sg11
S'elizabeth.tilney@enron.com'
p417
sg13
F10.0
sg14
F-575000.0
sg16
g17
sg18
F379.0
sg19
g20
sg21
F19.0
sg22
F152055.0
sg23
I0
sg24
g25
sg26
F300000.0
sg27
F1168042.0
sg28
F11.0
sg29
F576792.0
sg30
F247338.0
sg31
F399393.0
sg32
F591250.0
ssS'MARTIN AMANDA K'
p418
(dp419
g3
F1522.0
sg4
F85430.0
sg6
I0
sg7
F8211.0
sg8
I00
sg9
F5145434.0
sg11
S'a..martin@enron.com'
p420
sg13
F8.0
sg14
g15
sg16
g17
sg18
F477.0
sg19
g20
sg21
F230.0
sg22
F2818454.0
sg23
I0
sg24
g25
sg26
g50
sg27
F2070306.0
sg28
F0.0
sg29
g74
sg30
F349487.0
sg31
F8407016.0
sg32
F2070306.0
ssS'BUY RICHARD B'
p421
(dp422
g3
F3523.0
sg4
F649584.0
sg6
I0
sg7
g47
sg8
I00
sg9
F769862.0
sg11
S'rick.buy@enron.com'
p423
sg13
F156.0
sg14
F-694862.0
sg16
g17
sg18
F2333.0
sg19
g20
sg21
F1053.0
sg22
F400572.0
sg23
I0
sg24
g25
sg26
F900000.0
sg27
F3444470.0
sg28
F71.0
sg29
F901657.0
sg30
F330546.0
sg31
F2355702.0
sg32
F2542813.0
ssS'GRAMM WENDY L'
p424
(dp425
g3
g36
sg4
g5
sg6
I0
sg7
g47
sg8
I00
sg9
g10
sg11
g37
sg13
g38
sg14
g15
sg16
g17
sg18
g39
sg19
g20
sg21
g40
sg22
g49
sg23
I0
sg24
F119292.0
sg26
g50
sg27
g78
sg28
g41
sg29
g74
sg30
g51
sg31
F119292.0
sg32
g33
ssS'CAUSEY RICHARD A'
p426
(dp427
g3
F1892.0
sg4
g5
sg6
I1
sg7
F30674.0
sg8
I01
sg9
F350000.0
sg11
S'richard.causey@enron.com'
p428
sg13
F58.0
sg14
F-235000.0
sg16
g17
sg18
F1585.0
sg19
g20
sg21
F49.0
sg22
F307895.0
sg23
I1
sg24
g25
sg26
F1000000.0
sg27
F2502063.0
sg28
F12.0
sg29
F2502063.0
sg30
F415189.0
sg31
F1868758.0
sg32
g33
ssS'TAYLOR MITCHELL S'
p429
(dp430
g3
F533.0
sg4
F227449.0
sg6
I0
sg7
g47
sg8
I00
sg9
g10
sg11
S'mitchell.taylor@enron.com'
p431
sg13
F0.0
sg14
g15
sg16
g17
sg18
F300.0
sg19
g20
sg21
F29.0
sg22
g49
sg23
I0
sg24
g25
sg26
F600000.0
sg27
F3745048.0
sg28
F0.0
sg29
F563798.0
sg30
F265214.0
sg31
F1092663.0
sg32
F3181250.0
ssS'DONAHUE JR JEFFREY M'
p432
(dp433
g3
F865.0
sg4
g5
sg6
I0
sg7
F96268.0
sg8
I00
sg9
g10
sg11
S'jeff.donahue@enron.com'
p434
sg13
F188.0
sg14
F-300000.0
sg16
g17
sg18
F772.0
sg19
g20
sg21
F22.0
sg22
F891.0
sg23
I0
sg24
g25
sg26
F800000.0
sg27
F1080988.0
sg28
F11.0
sg29
F315068.0
sg30
F278601.0
sg31
F875760.0
sg32
F765920.0
ssS'GLISAN JR BEN F'
p435
(dp436
g3
F873.0
sg4
g5
sg6
I1
sg7
F125978.0
sg8
I01
sg9
F71023.0
sg11
S'ben.glisan@enron.com'
p437
sg13
F52.0
sg14
g15
sg16
g17
sg18
F874.0
sg19
g20
sg21
F16.0
sg22
F200308.0
sg23
I0
sg24
g25
sg26
F600000.0
sg27
F778546.0
sg28
F6.0
sg29
F393818.0
sg30
F274975.0
sg31
F1272284.0
sg32
F384728.0
ss.