(dp0
S'METTS MARK'
p1
(dp2
S'salary'
p3
F365788.0
sS'to_messages'
p4
F807.0
sS'deferral_payments'
p5
S'NaN'
p6
sS'total_payments'
p7
F1061827.0
sS'bonus'
p8
F600000.0
sS'topics'
p9
Vlocation video monday person request crisis day price use bill project use sale interest transaction exchange contract issue sce dynegy file information letter agreement counsel security transaction sec law participation tomorrow comment march sale px energy cost ferc customer proposal gift holiday charity schedule governor party today staff service person jeff bill idea detail office houston member effort analyst matter note program change idea interest opportunity associateanalyst outlook development analyst
p10
sS'total_stock_value'
p11
F585062.0
sS'expenses'
p12
F94299.0
sS'exercised_stock_options'
p13
S'NaN'
p14
sS'from_messages'
p15
F29.0
sS'other'
p16
F1740.0
sS'poi'
p17
I00
sS'long_term_incentive'
p18
S'NaN'
p19
sS'restricted_stock'
p20
F585062.0
sS'deferred_income'
p21
S'NaN'
p22
ssS'BAXTER JOHN C'
p23
(dp24
g3
F267102.0
sg4
S'NaN'
p25
sg5
F1295738.0
sg7
F5634343.0
sg8
F1200000.0
sS'email_address'
p26
S'NaN'
p27
sg9
S''
p28
sg11
F10623258.0
sg12
F11200.0
sg13
F6680544.0
sg15
S'NaN'
p29
sg16
F2660303.0
sg17
I00
sg18
F1586055.0
sg20
F3942714.0
sg21
F-1386055.0
ssS'ELLIOTT STEVEN'
p30
(dp31
g3
F170941.0
sg4
g25
sg5
g6
sg7
F211725.0
sg8
F350000.0
sg26
S'steven.elliott@enron.com'
p32
sg9
g28
sg11
F6678735.0
sg12
F78552.0
sg13
F4890344.0
sg15
g29
sg16
F12961.0
sg17
I00
sg18
g19
sg20
F1788391.0
sg21
F-400729.0
ssS'CORDES WILLIAM R'
p33
(dp34
g3
S'NaN'
p35
sg4
F764.0
sg5
g6
sg7
S'NaN'
p36
sg8
S'NaN'
p37
sg9
Vcalifornia number rule chairman generation concern enron corp utility plant executive need line trading support contract investor credit case deal letter government quarter deal enron co producer yesterday response value conference houston el transportation paso firm exchange merger concern share use board asset enron problem policy transaction co trading exchange option draft term filing shipper demand july storage condition discussion draft discussion development unit yesterday case contract end houston letter
p38
sg11
F1038185.0
sg12
S'NaN'
p39
sg13
F651850.0
sg15
F12.0
sg16
S'NaN'
p40
sg17
I00
sg18
g19
sg20
F386335.0
sg21
g22
ssS'HANNON KEVIN P'
p41
(dp42
g3
F243293.0
sg4
F1045.0
sg5
g6
sg7
F288682.0
sg8
F1500000.0
sg9
Vpower transaction trading value volume gas government joe organization office charitygift idea mayfield message note june week goal kevin mark conference location video sherri boardroom request floor prc member person gift charitygift holiday charity mayfield week schedule school case cornell houston program change note copy june john mark service opportunity assistant phone goal corp board employee kevin system issue unit work tva market issue holiday day letter order portfolio operation
p43
sg11
F6391065.0
sg12
F34039.0
sg13
F5538001.0
sg15
F32.0
sg16
F11350.0
sg17
I01
sg18
F1617011.0
sg20
F853064.0
sg21
F-3117011.0
ssS'MORDAUNT KRISTINA M'
p44
(dp45
g3
F267093.0
sg4
g25
sg5
g6
sg7
F628522.0
sg8
F325000.0
sg26
S'kristina.mordaunt@enron.com'
p46
sg9
g28
sg11
F208510.0
sg12
F35018.0
sg13
g14
sg15
g29
sg16
F1411.0
sg17
I00
sg18
g19
sg20
F208510.0
sg21
g22
ssS'MEYER ROCKFORD G'
p47
(dp48
g3
g35
sg4
F232.0
sg5
F1848227.0
sg7
F1848227.0
sg8
g37
sg9
Vclass enron activity way industry trading today plan day utility project phase draft construction function contract operation goal question call conference morning power japan form law chairman confirmation corp enron presentation phone number product person section list issue time name room copy ticket site ferc use print location target day march transportation facility system agreement rule requirement provider section day page government industry commission rate organization utility today policy december
p49
sg11
F955873.0
sg12
g39
sg13
F493489.0
sg15
F28.0
sg16
g40
sg17
I00
sg18
g19
sg20
F462384.0
sg21
g22
ssS'MCMAHON JEFFREY'
p50
(dp51
g3
F370448.0
sg4
F2355.0
sg5
g6
sg7
F4099771.0
sg8
F2600000.0
sg9
Vcharitygift location conference video monday line email floor merger agreement mark john risk employee greg unit mcmahon trading operation office release comment corp houston trade change mark power board position list site order security comment cash paper bank system investment review group week deal process unit issue point team steel use program market effort analyst service company president interest opportunity note regard greg work director office chairman change comment trading
p52
sg11
F1662855.0
sg12
F137108.0
sg13
F1104054.0
sg15
F48.0
sg16
F297353.0
sg17
I00
sg18
F694862.0
sg20
F558801.0
sg21
g22
ssS'HORTON STANLEY C'
p53
(dp54
g3
g35
sg4
F2350.0
sg5
F3131860.0
sg7
F3131860.0
sg8
g37
sg9
Vmorning gas pipeline state order capacity california mtbe commission legislation conference contact email date floor request response stan line houston horton stanley employee mark project way stan discussion opportunity development comment john power review process point cost action unit service phone policy system agreement position deal help risk corp problem jeff let bill board staff message line effort release concern note list analyst director change corp program eott chairman organization
p55
sg11
F7256648.0
sg12
g39
sg13
F5210569.0
sg15
F1073.0
sg16
g40
sg17
I00
sg18
g19
sg20
F2046079.0
sg21
g22
ssS'PIPER GREGORY F'
p56
(dp57
g3
F197091.0
sg4
F1238.0
sg5
F1130036.0
sg7
F1737629.0
sg8
F400000.0
sg9
Vprogram discussion effort york need department use committee unit beck location floor march phone trading seat director center project backup trade count mwh mmbtu kingdom let barrel rate canada option budget room transaction employee site management look order value part enrononline support agreement risk thing energy employee part application help copy communication john david cc president case beck technology price executive share call louise committee corp chairman offer interest opportunity
p58
sg11
F880290.0
sg12
F43057.0
sg13
F880290.0
sg15
F222.0
sg16
F778.0
sg17
I00
sg18
g19
sg20
F409554.0
sg21
F-33333.0
ssS'HUMPHREY GENE E'
p59
(dp60
g3
F130724.0
sg4
F128.0
sg5
F2964506.0
sg7
F3100224.0
sg8
g37
sg9
Vcindy definition dcb subcommittee eb order review analyst broadband lunch case meg enrononline louise field everyone christie portfolio harvard file policy attendance look security transaction lauer agenda carson risk lp stay draft health tomorrow response award scholarship today letter form tuesday part professor david presentation research harvard lunch mark today reason tomorrow document subcommittee heof chair jim mark andor intrust lowry conference counsel culture stacy report discussion walker cynet issue
p61
sg11
F2282768.0
sg12
F4994.0
sg13
F2282768.0
sg15
F17.0
sg16
g40
sg17
I00
sg18
g19
sg20
S'NaN'
p62
sg21
g22
ssS'UMANOFF ADAM S'
p63
(dp64
g3
F288589.0
sg4
F111.0
sg5
g6
sg7
F1130461.0
sg8
F788750.0
sg9
Vactivity product process customer staff discus management dont effort introduction officer president vice join safety cell discrimination support file concern entity ownership trade structure partner hardie inc sa name resource rsvp ticket game projection committee form conference response dont cash presentation tracy cc hour copy bill stan houston folk name regency hyatt houston power japan sloan carey appointment encom ceo transaction deal cash mesa august txu memo term delainey concern
p65
sg11
S'NaN'
p66
sg12
F53122.0
sg13
g14
sg15
F18.0
sg16
g40
sg17
I00
sg18
g19
sg20
g62
sg21
g22
ssS'BLACHMAN JEREMY M'
p67
(dp68
g3
F248546.0
sg4
F2475.0
sg5
g6
sg7
F2014835.0
sg8
F850000.0
sg9
Vfloor monday ab senator sb iep burton amendment measure tax draft dwr mara suspension email review need attorney room session thank list message analyst letter inc producer jan medium statement ferc load iso letter bid policy effect capacity section document da note version suspension dont dwr mara enron provision charge gov solution percent conservation deregulation water dollar spokesman unit government enron court judge asset fund development account filing sce cash
p69
sg11
F954354.0
sg12
F84208.0
sg13
F765313.0
sg15
F14.0
sg16
F272.0
sg17
I00
sg18
F831809.0
sg20
F189041.0
sg21
g22
ssS'SUNDE MARTIN'
p70
(dp71
g3
F257486.0
sg4
F2647.0
sg5
g6
sg7
F1545059.0
sg8
F700000.0
sg9
Vpercent water conservation government bond deregulation debt operator supplier department room policy cap hearing case control situation period producer sce letter dwr tomorrow party judge puc detail analyst tuesday get thank vote ab sb amendment idea senator iep measure tax unit june program draft chairman employee bid cpuc outage result monday request email message thank statement inc producer court exchange px list claim jan cpuc sce discussion john charge section
p72
sg11
F698920.0
sg12
g39
sg13
g14
sg15
F38.0
sg16
F111122.0
sg17
I00
sg18
F476451.0
sg20
F698920.0
sg21
g22
ssS'GIBBS DANA R'
p73
(dp74
g3
g35
sg4
F169.0
sg5
F504610.0
sg7
F966522.0
sg8
g37
sg9
Vacquisition purchase sale news bid site stock analyst concern equity loss problem distribution charge commission finance supply california news chairman result investor approval value gas industry board part service utility houston board executive something fund term partnership chairman point acquisition construction producer distribution gas analyst investigation site director conversation counsel ticket counsel dreyfus tape conversation service value partnership bill something yesterday operation message event winter dont stock concern policy part
p75
sg11
F2218275.0
sg12
g39
sg13
F2218275.0
sg15
F12.0
sg16
g40
sg17
I00
sg18
F461912.0
sg20
g62
sg21
g22
ssS'LOWRY CHARLES P'
p76
(dp77
g3
g35
sg4
g25
sg5
g6
sg7
g36
sg8
g37
sg26
g27
sg9
g28
sg11
F372205.0
sg12
g39
sg13
F372205.0
sg15
g29
sg16
g40
sg17
I00
sg18
g19
sg20
F153686.0
sg21
g22
ssS'COLWELL WESLEY'
p78
(dp79
g3
F288542.0
sg4
F1758.0
sg5
F27610.0
sg7
F1490344.0
sg8
F1200000.0
sg9
Vpower gas colwell schedule trading louise cash energy agreement sheet committee june staff friday management month budget phone flow help list prc budget louise market today everyone schedule move floor houston room access channel service center monitor floor desk exchange transaction tax opportunity session simulation goal sale trader chairman originator report request message item note deal approval email support ena employee memo news program hr accounting communication peer david function
p80
sg11
F698242.0
sg12
F16514.0
sg13
g14
sg15
F40.0
sg16
F101740.0
sg17
I01
sg18
g19
sg20
F698242.0
sg21
F-144062.0
ssS'MULLER MARK S'
p81
(dp82
g3
F251654.0
sg4
F136.0
sg5
F842924.0
sg7
F3202070.0
sg8
F1100000.0
sg9
Vcomment donna draft press investor dynegy inc friday core service week gas power asset thing contract day price market value merger company dynegy exchange lance schuler state problem energy interest employee communication use email qa friday information service estate lance video policy corp donna executive security contact merger gas contract cash diligence pig andy chief officer hall integration trader accounting contact street information partnership analyst investment cash plant power development
p83
sg11
F1416848.0
sg12
g39
sg13
F1056320.0
sg15
F16.0
sg16
F947.0
sg17
I00
sg18
F1725545.0
sg20
F360528.0
sg21
F-719000.0
ssS'JACKSON CHARLENE R'
p84
(dp85
g3
F288558.0
sg4
F258.0
sg5
g6
sg7
F551174.0
sg8
F250000.0
sg9
Vprofessor understand committee breakfast role tool attend attendance berkeley part cindy graduate assistance committee baylor quality firm breakfast spring ou calendar fall shelley ou internship lexi firm hand participant order power resume compliance donna opportunity policy transaction berkeley product calendar agenda plan copy celeste robert dont result rotation effort point weekend session delainey budget texas rotation performance dawn review planning rep change hire unit attend let conversation quality committee point
p86
sg11
F725735.0
sg12
F10181.0
sg13
F185063.0
sg15
F56.0
sg16
F2435.0
sg17
I00
sg18
g19
sg20
F540672.0
sg21
g22
ssS'WESTFAHL RICHARD K'
p87
(dp88
g3
F63744.0
sg4
g25
sg5
g6
sg7
F762135.0
sg8
g37
sg26
S'dick.westfahl@enron.com'
p89
sg9
g28
sg11
F384930.0
sg12
F51870.0
sg13
g14
sg15
g29
sg16
F401130.0
sg17
I00
sg18
F256191.0
sg20
F384930.0
sg21
F-10800.0
ssS'WALTERS GARETH W'
p90
(dp91
g3
g35
sg4
g25
sg5
F53625.0
sg7
F87410.0
sg8
g37
sg26
g27
sg9
g28
sg11
F1030329.0
sg12
F33785.0
sg13
F1030329.0
sg15
g29
sg16
g40
sg17
I00
sg18
g19
sg20
g62
sg21
g22
ssS'WALLS JR ROBERT H'
p92
(dp93
g3
F357091.0
sg4
F671.0
sg5
g6
sg7
F1798780.0
sg8
F850000.0
sg9
Vstate court arbitration mseb letter today month dpc position plant memo report robert compliance discus change request basis point finance task force presentation executive responsibility support level detail note way director market payment detail room file need asset credit energy system product page firm relationship order customer compliance site communication room use lawyer process june copy cost problem news firm transaction unit comment entity asset list mr credit energy committee
p94
sg11
F5898997.0
sg12
F50936.0
sg13
F4346544.0
sg15
F146.0
sg16
F2.0
sg17
I00
sg18
F540751.0
sg20
F1552453.0
sg21
g22
ssS'KITCHEN LOUISE'
p95
(dp96
g3
F271442.0
sg4
F8305.0
sg5
g6
sg7
F3471141.0
sg8
F3100000.0
sg9
Venrononline document customer contract trader volume option term month party presentation message phone email let order site version use access note list copy name employee agreement review request contact houston fax user life revenue entity houston chairman service corp enrononline state rate cost asset california price sale service utility bankruptcy risk trade position director operation bill credit jeff way corp thank committee conference tomorrow david team lavorato floor morning need
p97
sg11
F547143.0
sg12
F5774.0
sg13
F81042.0
sg15
F1728.0
sg16
F93925.0
sg17
I00
sg18
g19
sg20
F466101.0
sg21
g22
ssS'CHAN RONNIE'
p98
(dp99
g3
g35
sg4
g25
sg5
g6
sg7
g36
sg8
g37
sg26
g27
sg9
g28
sg11
g66
sg12
g39
sg13
g14
sg15
g29
sg16
g40
sg17
I00
sg18
g19
sg20
F32460.0
sg21
F-98784.0
ssS'BELFER ROBERT'
p100
(dp101
g3
g35
sg4
g25
sg5
F-102500.0
sg7
F102500.0
sg8
g37
sg26
g27
sg9
g28
sg11
F-44093.0
sg12
g39
sg13
F3285.0
sg15
g29
sg16
g40
sg17
I00
sg18
g19
sg20
g62
sg21
g22
ssS'SHANKMAN JEFFREY A'
p102
(dp103
g3
F304110.0
sg4
F3221.0
sg5
g6
sg7
F3038702.0
sg8
F2000000.0
sg9
Vdistribution veronica credit bill watch coal print eol trade note volume position crude limit deal price power month oil issue list thank program analyst review conference process change unit employee user avg committee life enrononline revenue flow metal percentage entity mark im subject june office let work weather mike plan opportunity interest company contract term lng energy commodity discussion project phone vince john jennifer presentation wharton team trader project email
p104
sg11
F2072035.0
sg12
F178979.0
sg13
F1441898.0
sg15
F2681.0
sg16
F1191.0
sg17
I00
sg18
F554422.0
sg20
F630137.0
sg21
g22
ssS'WODRASKA JOHN'
p105
(dp106
g3
g35
sg4
g25
sg5
g6
sg7
F189583.0
sg8
g37
sg26
S'john.wodraska@enron.com'
p107
sg9
g28
sg11
g66
sg12
g39
sg13
g14
sg15
g29
sg16
F189583.0
sg17
I00
sg18
g19
sg20
g62
sg21
g22
ssS'BERGSIEKER RICHARD P'
p108
(dp109
g3
F187922.0
sg4
F383.0
sg5
g6
sg7
F618850.0
sg8
F250000.0
sg9
Vpatricia deadline vitrella look help noon michelle need grabstald sunita japan schedule use role intervention part meet head presentation mark noon staff reminder contact vitrella kathie plan grabstald michelle day saudi energy oil partner world minister gaza plant supply discussion comment news trading grabstald noon agreement control transfer copy day presentation egm relation analyst employee person support name copy unit sunita dialin dabhol dpc effect discussion contract india name visit
p110
sg11
F659249.0
sg12
F59175.0
sg13
g14
sg15
F59.0
sg16
F427316.0
sg17
I00
sg18
F180250.0
sg20
F659249.0
sg21
F-485813.0
ssS'URQUHART JOHN A'
p111
(dp112
g3
g35
sg4
g25
sg5
g6
sg7
F228656.0
sg8
g37
sg26
g27
sg9
g28
sg11
g66
sg12
F228656.0
sg13
g14
sg15
g29
sg16
g40
sg17
I00
sg18
g19
sg20
g62
sg21
F-36666.0
ssS'BIBI PHILIPPE A'
p113
(dp114
g3
F213625.0
sg4
F1607.0
sg5
g6
sg7
F2047593.0
sg8
F1000000.0
sg9
Vphone deal system problem issue phase application position status way domain use list site comment order prc note name year charitygift message copy email gift mayfield regard customer communication charity mark houston market hour member technology organization activity jeff development volume power louise gas trading basis paper mmbtus coal execution project let year detail plan discus work place development process location conference schedule call holiday monday floor office response plan
p115
sg11
F1843816.0
sg12
F38559.0
sg13
F1465734.0
sg15
F40.0
sg16
F425688.0
sg17
I00
sg18
F369721.0
sg20
F378082.0
sg21
g22
ssS'RIEKER PAULA H'
p116
(dp117
g3
F249201.0
sg4
F1328.0
sg5
F214678.0
sg7
F1099100.0
sg8
F700000.0
sg9
Vsite intranet version announcement security customer look communication email picture force email review change call communication mr problem board paula picture release medium issue employee week statement john change yesterday office plan director committee analyst chairman rating york john agency investor paula conference jeff year committee document call plan share corp houston service lay board director president unit street committee power state energy program price california month department sale resource
p118
sg11
F1918887.0
sg12
F33271.0
sg13
F1635238.0
sg15
F82.0
sg16
F1950.0
sg17
I01
sg18
g19
sg20
F283649.0
sg21
F-100000.0
ssS'WHALEY DAVID A'
p119
(dp120
g3
g35
sg4
g25
sg5
g6
sg7
g36
sg8
g37
sg26
g27
sg9
g28
sg11
F98718.0
sg12
g39
sg13
F98718.0
sg15
g29
sg16
g40
sg17
I00
sg18
g19
sg20
g62
sg21
g22
ssS'BECK SALLY W'
p121
(dp122
g3
F231330.0
sg4
F7315.0
sg5
g6
sg7
F969068.0
sg8
F700000.0
sg9
Vnight morning month monday david mark schedule look way london staff phone copy gas jeff power problem message person price employee location service session effort floor discus cost energy market presentation program director interview analyst tomorrow opportunity help thank rick request thank note approval name access comment resource application unit memo distribution credit executive flow copy life john activity book transaction value deal project user europe metal development customer control
p123
sg11
F126027.0
sg12
F37172.0
sg13
g14
sg15
F4343.0
sg16
F566.0
sg17
I00
sg18
g19
sg20
F126027.0
sg21
g22
ssS'HAUG DAVID L'
p124
(dp125
g3
g35
sg4
F573.0
sg5
g6
sg7
F475.0
sg8
g37
sg9
Vmessage bill idea employee rick reference jim event email affair document mark policy houston rule rick role trading support team cindy olson linda program secretary list mba president summer analyst phone jennifer governor mark change rick market service role process change everyone note organization candidate list hour interview david detail video sherri boardroom conf dialin serum passcode connection request katherine invitation schedule party director review announcement week market houston power
p126
sg11
F2217299.0
sg12
F475.0
sg13
g14
sg15
F19.0
sg16
g40
sg17
I00
sg18
g19
sg20
F2217299.0
sg21
g22
ssS'ECHOLS JOHN B'
p127
(dp128
g3
F182245.0
sg4
g25
sg5
g6
sg7
F2692324.0
sg8
F200000.0
sg26
S'john.echols@enron.com'
p129
sg9
g28
sg11
F1008941.0
sg12
F21530.0
sg13
F601438.0
sg15
g29
sg16
F53775.0
sg17
I00
sg18
F2234774.0
sg20
F407503.0
sg21
g22
ssS'MENDELSOHN JOHN'
p130
(dp131
g3
g35
sg4
g25
sg5
g6
sg7
F148.0
sg8
g37
sg26
g27
sg9
g28
sg11
g66
sg12
F148.0
sg13
g14
sg15
g29
sg16
g40
sg17
I00
sg18
g19
sg20
g62
sg21
F-103750.0
ssS'HICKERSON GARY J'
p132
(dp133
g3
F211788.0
sg4
F1320.0
sg5
g6
sg7
F2081796.0
sg8
F1700000.0
sg9
Vprogram employee committee line analyst area president request performance ena sender bond bill source yesterday price york generator power morning work gas position houston power interest policy security analysis access prc sheila news mark executive part result houston team month change product commodity book position corp copy transaction investment sheila team help bank hour discussion resource point member need program staff presentation john agreement morning end mark operation copy way
p134
sg11
F441096.0
sg12
F98849.0
sg13
g14
sg15
F27.0
sg16
F1936.0
sg17
I00
sg18
F69223.0
sg20
F441096.0
sg21
g22
ssS'CLINE KENNETH W'
p135
(dp136
g3
g35
sg4
g25
sg5
g6
sg7
g36
sg8
g37
sg26
g27
sg9
g28
sg11
F189518.0
sg12
g39
sg13
g14
sg15
g29
sg16
g40
sg17
I00
sg18
g19
sg20
F662086.0
sg21
g22
ssS'LEWIS RICHARD'
p137
(dp138
g3
g35
sg4
F952.0
sg5
g6
sg7
g36
sg8
g37
sg9
Vregard meeting risk policy strategy fax office emission trading video price customer version site ability license broker option trading load vince work position research richard cost houston support team system intranet site window login comment access list id security click june richard gas paul peter energy london mark government john summary basis trading meeting comment policy london version call regulation picture metafile summary note trade deal curve eol change month
p139
sg11
F850477.0
sg12
g39
sg13
F850477.0
sg15
F26.0
sg16
g40
sg17
I00
sg18
g19
sg20
g62
sg21
g22
ssS'HAYES ROBERT E'
p140
(dp141
g3
g35
sg4
F504.0
sg5
F7961.0
sg7
F7961.0
sg8
g37
sg9
Vsurvey group network company discussion point firm employee customer agreement price supply cost capacity expansion development demand group company california government concern item process risk management energy line rule problem houston date merger operation business security part management board concern conference number executive cash analyst level unit business group process team review john outlook migration use quarter case date book point change concern power application board rto review stock merger
p142
sg11
F151418.0
sg12
g39
sg13
g14
sg15
F12.0
sg16
g40
sg17
I00
sg18
g19
sg20
F151418.0
sg21
g22
ssS'MCCARTY DANNY J'
p143
(dp144
g3
g35
sg4
F1433.0
sg5
g6
sg7
g36
sg8
g37
sg9
Vstaff employee concern way demand yesterday level program area dynegy charitygift conference process chairman comment state share industry management thing john office report comment director corp board quarter management co work share problem transaction cash stock asset option officer operation deal party rate program risk analyst offer sale management value houston project power cost california customer plant state work interest request review team outlook area access use unit office project
p145
sg11
F758931.0
sg12
g39
sg13
F664375.0
sg15
F215.0
sg16
g40
sg17
I00
sg18
g19
sg20
F94556.0
sg21
g22
ssS'KOPPER MICHAEL J'
p146
(dp147
g3
F224305.0
sg4
g25
sg5
g6
sg7
F2652612.0
sg8
F800000.0
sg26
S'michael.kopper@enron.com'
p148
sg9
g28
sg11
F985032.0
sg12
F118134.0
sg13
g14
sg15
g29
sg16
F907502.0
sg17
I01
sg18
F602671.0
sg20
F985032.0
sg21
g22
ssS'LEFF DANIEL P'
p149
(dp150
g3
F273746.0
sg4
F2822.0
sg5
g6
sg7
F2664228.0
sg8
F1000000.0
sg9
Vmessage court pacific debt statement case puc exchange judge employee unit capacity iso jan producer iep inc bid load ferc monday px request tuesday june claim puc place judge dwr amendment letter sb ab provision hearing draft measure tax respond charge fund sce development budget letter project asset value account party gov solution legislation government role conservation policy address help mark dan room team john tomorrow email discussion investigation need
p151
sg11
F360528.0
sg12
g39
sg13
g14
sg15
F63.0
sg16
F3083.0
sg17
I00
sg18
F1387399.0
sg20
F360528.0
sg21
g22
ssS'LAVORATO JOHN J'
p152
(dp153
g3
F339288.0
sg4
F7259.0
sg5
g6
sg7
F10425757.0
sg8
F8000000.0
sg9
Vdistribution copy veronica schedule location work regard plan project june trade change comment month way problem floor term company place list email order need jeff trader program detail process regard lavorato memo mark louise david employee june review process regard price contract california state agreement cost rate company utility plan position tomorrow deal risk transaction book product desk volume value thank committee note bill system access executive conference team decision
p154
sg11
F5167144.0
sg12
F49537.0
sg13
F4158995.0
sg15
F2585.0
sg16
F1552.0
sg17
I00
sg18
F2035380.0
sg20
F1008149.0
sg21
g22
ssS'BERBERIAN DAVID'
p155
(dp156
g3
F216582.0
sg4
g25
sg5
g6
sg7
F228474.0
sg8
g37
sg26
S'david.berberian@enron.com'
p157
sg9
g28
sg11
F2493616.0
sg12
F11892.0
sg13
F1624396.0
sg15
g29
sg16
g40
sg17
I00
sg18
g19
sg20
F869220.0
sg21
g22
ssS'DETMERING TIMOTHY J'
p158
(dp159
g3
F210500.0
sg4
g25
sg5
F875307.0
sg7
F1204583.0
sg8
F425000.0
sg26
S'timothy.detmering@enron.com'
p160
sg9
g28
sg11
F2027865.0
sg12
F52255.0
sg13
F2027865.0
sg15
g29
sg16
F1105.0
sg17
I00
sg18
F415657.0
sg20
F315068.0
sg21
F-775241.0
ssS'WAKEHAM JOHN'
p161
(dp162
g3
g35
sg4
g25
sg5
g6
sg7
F213071.0
sg8
g37
sg26
g27
sg9
g28
sg11
g66
sg12
F103773.0
sg13
g14
sg15
g29
sg16
g40
sg17
I00
sg18
g19
sg20
g62
sg21
g22
ssS'POWERS WILLIAM'
p163
(dp164
g3
g35
sg4
F653.0
sg5
g6
sg7
g36
sg8
g37
sg9
Vpaso el site deal wisconsin issue rating merger approval dynegy compressor mmcfd station dthd pipe co portion vector subsidiary safety management factor center item flow action marketer canada thing volatility confirmation name password john mmbtu portion register october return period share stock injection average producer shareholder mmbtu decline foot purchase temperature distillate coast heating see kinder center forecast request stock decision application support cap action structure issue delay activity world
p165
sg11
g66
sg12
g39
sg13
g14
sg15
F26.0
sg16
g40
sg17
I00
sg18
g19
sg20
g62
sg21
F-17500.0
ssS'GOLD JOSEPH'
p166
(dp167
g3
F272880.0
sg4
g25
sg5
g6
sg7
F2146973.0
sg8
F750000.0
sg26
S'joe.gold@enron.com'
p168
sg9
g28
sg11
F877611.0
sg12
g39
sg13
F436515.0
sg15
g29
sg16
F819288.0
sg17
I00
sg18
F304805.0
sg20
F441096.0
sg21
g22
ssS'BANNANTINE JAMES M'
p169
(dp170
g3
F477.0
sg4
F566.0
sg5
g6
sg7
F916197.0
sg8
g37
sg9
Vvideo boardroom sherri monday connection dialin conf serum passcode request power day issue note review corp rule opportunity week work invitation idea party bill message list note management let work cindy olson governor employee reference rick staff comment manager house center organization decision detail linda effort president vice secretary joe phone mark today gas market energy transportation interest rick process draft delainey comment asset communication organization message summer announcement team
p171
sg11
F5243487.0
sg12
F56301.0
sg13
F4046157.0
sg15
F29.0
sg16
F864523.0
sg17
I00
sg18
g19
sg20
F1757552.0
sg21
F-5104.0
ssS'DUNCAN JOHN H'
p172
(dp173
g3
g35
sg4
g25
sg5
g6
sg7
F77492.0
sg8
g37
sg26
g27
sg9
g28
sg11
F371750.0
sg12
g39
sg13
F371750.0
sg15
g29
sg16
g40
sg17
I00
sg18
g19
sg20
g62
sg21
F-25000.0
ssS'SHAPIRO RICHARD S'
p174
(dp175
g3
F269076.0
sg4
F15149.0
sg5
g6
sg7
F1057548.0
sg8
F650000.0
sg9
Vproject tax emergency deregulation sale industry spot news water exchange letter john chairman washington house senate administration producer gov solution email request director june budget transaction executive share level hour language board march legislation industry dont development authority news yesterday risk party unit capacity iso rule load area resource line document edison yesterday credit pge amount puc court payment judge message solution email home bond vote charge result pay air
p176
sg11
F987001.0
sg12
F137767.0
sg13
F607837.0
sg15
F1215.0
sg16
F705.0
sg17
I00
sg18
g19
sg20
F379164.0
sg21
g22
ssS'SHERRIFF JOHN R'
p177
(dp178
g3
F428780.0
sg4
F3187.0
sg5
g6
sg7
F4335388.0
sg8
F1500000.0
sg9
Voil utility electricity government california plant crisis sale commission industry volume facility project purchase supply source cap staff proposal oil program dont amount yesterday agreement leader dollar profit news summer hour bill help manager news administration writer industry summer part board area thing bond electricity law tax charge house demand share project manager home part president money staff stock bankruptcy chairman action control debt thing source profit manager yesterday tax
p179
sg11
F3128982.0
sg12
g39
sg13
F1835558.0
sg15
F92.0
sg16
F1852186.0
sg17
I00
sg18
F554422.0
sg20
F1293424.0
sg21
g22
ssS'SHELBY REX'
p180
(dp181
g3
F211844.0
sg4
F225.0
sg5
g6
sg7
F2003885.0
sg8
F200000.0
sg9
Venrononline status counsel application form transaction structure step issue deal center garage nda space sungard group transportation elevator contract cost project thank member partner point director tomorrow power investment help staff code officer piper room file service program jay member date interview part location program analyst effort thing investment mec thursday andy john management jay board officer role morning ceo detail room floor director center piper management corp project jeff
p182
sg11
F2493616.0
sg12
F22884.0
sg13
F1624396.0
sg15
F39.0
sg16
F1573324.0
sg17
I01
sg18
g19
sg20
F869220.0
sg21
F-4167.0
ssS'LEMAISTRE CHARLES'
p183
(dp184
g3
g35
sg4
g25
sg5
g6
sg7
F87492.0
sg8
g37
sg26
g27
sg9
g28
sg11
F412878.0
sg12
g39
sg13
F412878.0
sg15
g29
sg16
g40
sg17
I00
sg18
g19
sg20
g62
sg21
F-25000.0
ssS'DEFFNER JOSEPH M'
p185
(dp186
g3
F206121.0
sg4
F714.0
sg5
g6
sg7
F1208649.0
sg8
F600000.0
sg9
Vnoon credit submit cash joe deal interest thank bank margin contact sale comment mark work gas employee response part position email document street comment invitation request letter march trip margin room mark unit director everyone video process addition need employee memo delainey david ge turbine bill chip contract cc kay approval ena work paso finance tomorrow project change document consent committee location analyst friday event associateanalyst leader member interview invitation
p187
sg11
F159211.0
sg12
F41626.0
sg13
F17378.0
sg15
F74.0
sg16
F25553.0
sg17
I00
sg18
F335349.0
sg20
F141833.0
sg21
g22
ssS'KISHKILL JOSEPH G'
p188
(dp189
g3
F174246.0
sg4
g25
sg5
g6
sg7
F704896.0
sg8
g37
sg26
S'joe.kishkill@enron.com'
p190
sg9
g28
sg11
F1034346.0
sg12
F116335.0
sg13
g14
sg15
g29
sg16
F465357.0
sg17
I00
sg18
g19
sg20
F1034346.0
sg21
F-51042.0
ssS'WHALLEY LAWRENCE G'
p191
(dp192
g3
F510364.0
sg4
F6019.0
sg5
g6
sg7
F4677574.0
sg8
F3000000.0
sg9
Vcopy fax conference presentation message email contact director bill committee life user avg enrononline metal flow revenue europe entity review change rate price credit month oil california bankruptcy interest generator john mark regard position work way risk deal director contact trade volume contract houston effort june california offer bill edison order use agreement state system access site customer application share memo committee jeff unit policy chairman corp risk investment opportunity
p193
sg11
F6079137.0
sg12
F57838.0
sg13
F3282960.0
sg15
F556.0
sg16
F301026.0
sg17
I00
sg18
F808346.0
sg20
F2796177.0
sg21
g22
ssS'MCCONNELL MICHAEL S'
p194
(dp195
g3
F365038.0
sg4
F3329.0
sg5
g6
sg7
F2101364.0
sg8
F1100000.0
sg9
Veffort weather line discus coal idea activity lng chairman corp mark draft john review message employee trip discussion project development list note price deal way interest dont look contact contract user life avg flow enrononline revenue percentage entity europe metal committee conference contact member event person place help houston let trading program service energy position risk process support area president copy comment regard guy schedule mcconnell name analyst let problem
p196
sg11
F3101279.0
sg12
F81364.0
sg13
F1623010.0
sg15
F2742.0
sg16
F540.0
sg17
I00
sg18
F554422.0
sg20
F1478269.0
sg21
g22
ssS'PIRO JIM'
p197
(dp198
g3
g35
sg4
F58.0
sg5
g6
sg7
g36
sg8
g37
sg9
Vorganization dividend accounting loan alicia goodrow distribution let gregory leakage clayton michael marlow bickett gilbert john peter note curve home john keith peter jerry tod keiser brownell lawrence marlow anderson customer transaction charge request position tariff review service interest addition omaha participant bank guaranty guarantee note day part model greg state supply anything discussion item action june refund case document phone june spreadsheet issuance ibit home office document matter news
p199
sg11
F47304.0
sg12
g39
sg13
g14
sg15
F16.0
sg16
g40
sg17
I00
sg18
g19
sg20
F47304.0
sg21
g22
ssS'DELAINEY DAVID W'
p200
(dp201
g3
F365163.0
sg4
F3093.0
sg5
g6
sg7
F4747979.0
sg8
F3000000.0
sg9
Vthank conference copy executive contact note request message response line letter plant state transmission order site generation capacity summer problem transaction project party value schedule agreement amount term price asset program prc analyst employee performance unit ena turbine need end bill memo credit california comment jim rate customer access contract list approval policy end origination system need letter trading resource opportunity trading strategy organization customer corp product activity development houston
p202
sg11
F3614261.0
sg12
F86174.0
sg13
F2291113.0
sg15
F3069.0
sg16
F1661.0
sg17
I01
sg18
F1294981.0
sg20
F1323148.0
sg21
g22
ssS'SULLIVAN-SHAKLOVITZ COLLEEN'
p203
(dp204
g3
F162779.0
sg4
g25
sg5
F181993.0
sg7
F999356.0
sg8
F100000.0
sg26
g27
sg9
g28
sg11
F1362375.0
sg12
g39
sg13
F1362375.0
sg15
g29
sg16
F162.0
sg17
I00
sg18
F554422.0
sg20
g62
sg21
g22
ssS'WROBEL BRUCE'
p205
(dp206
g3
g35
sg4
g25
sg5
g6
sg7
g36
sg8
g37
sg26
g27
sg9
g28
sg11
F139130.0
sg12
g39
sg13
F139130.0
sg15
g29
sg16
g40
sg17
I00
sg18
g19
sg20
g62
sg21
g22
ssS'LINDHOLM TOD A'
p207
(dp208
g3
F236457.0
sg4
g25
sg5
F204075.0
sg7
F875889.0
sg8
F200000.0
sg26
S'tod.lindholm@enron.com'
p209
sg9
g28
sg11
F3064208.0
sg12
F57727.0
sg13
F2549361.0
sg15
g29
sg16
F2630.0
sg17
I00
sg18
F175000.0
sg20
F514847.0
sg21
g22
ssS'MEYER JEROME J'
p210
(dp211
g3
g35
sg4
g25
sg5
g6
sg7
F2151.0
sg8
g37
sg26
g27
sg9
g28
sg11
g66
sg12
F2151.0
sg13
g14
sg15
g29
sg16
g40
sg17
I00
sg18
g19
sg20
g62
sg21
F-38346.0
ssS'LAY KENNETH L'
p212
(dp213
g3
F1072321.0
sg4
F4273.0
sg5
F202911.0
sg7
F103559793.0
sg8
F7000000.0
sg9
Vgas bill price trading power energy stock california contract sale note change director development organization point risk unit discussion policy presentation volume use power email system issue board message share user avg enrononline europe metal percentage entity conference request line employee jeff program issue member effort help team event thing phone fax board mark letter investor john mr director chairman memo comment site security order access jeff policy opportunity cost
p214
sg11
F49110078.0
sg12
F99832.0
sg13
F34348384.0
sg15
F36.0
sg16
F10359729.0
sg17
I01
sg18
F3600000.0
sg20
F14761694.0
sg21
F-300000.0
ssS'BUTTS ROBERT H'
p215
(dp216
g3
F261516.0
sg4
g25
sg5
g6
sg7
F1271582.0
sg8
F750000.0
sg26
S'bob.butts@enron.com'
p217
sg9
g28
sg11
F417619.0
sg12
F9410.0
sg13
g14
sg15
g29
sg16
F150656.0
sg17
I00
sg18
F175000.0
sg20
F417619.0
sg21
F-75000.0
ssS'OLSON CINDY K'
p218
(dp219
g3
F329078.0
sg4
F1184.0
sg5
F77716.0
sg7
F1321557.0
sg8
F750000.0
sg9
Vphone assistant holiday schedule presentation corp greg conference center today memo list olson relation help community way note job stock charitygift gift mayfield card center charity idea bill project line interview analyst effort report unit program director organization hr weekend conference location video monday agenda floor sherri connection person response program group issue president chairman john month performance lay support note today email review power communication use presentation place point
p220
sg11
F2606763.0
sg12
F63791.0
sg13
F1637034.0
sg15
F52.0
sg16
F972.0
sg17
I00
sg18
F100000.0
sg20
F969729.0
sg21
g22
ssS'MCDONALD REBECCA'
p221
(dp222
g3
g35
sg4
F894.0
sg5
g6
sg7
g36
sg8
g37
sg9
Vpresident market energy vice project government power director agreement detail invitation party taylor work schedule today morning china day jim memo mark draft taylor interest regard level change statement trade gift message charity card bill management change program schedule organization phone video sherri boardroom connection request passcode program response hour note tuesday budget list dabhol john force strategy approach change employee rick jim meet schedule comment reference lay report relation
p223
sg11
F1691366.0
sg12
g39
sg13
F757301.0
sg15
F13.0
sg16
g40
sg17
I00
sg18
g19
sg20
F934065.0
sg21
g22
ssS'CUMBERLAND MICHAEL S'
p224
(dp225
g3
F184899.0
sg4
g25
sg5
g6
sg7
F807956.0
sg8
F325000.0
sg26
g27
sg9
g28
sg11
F207940.0
sg12
F22344.0
sg13
g14
sg15
g29
sg16
F713.0
sg17
I00
sg18
F275000.0
sg20
F207940.0
sg21
g22
ssS'GAHN ROBERT S'
p226
(dp227
g3
F192008.0
sg4
g25
sg5
F73122.0
sg7
F900585.0
sg8
F509870.0
sg26
g27
sg9
g28
sg11
F318607.0
sg12
F50080.0
sg13
F83237.0
sg15
g29
sg16
F76547.0
sg17
I00
sg18
g19
sg20
F235370.0
sg21
F-1042.0
ssS'MCCLELLAN GEORGE'
p228
(dp229
g3
F263413.0
sg4
F1744.0
sg5
g6
sg7
F1318763.0
sg8
F900000.0
sg9
Vreview room employee plan analyst request program office ena process site anyone intranet link version access experience security announcement look thank news mike team issue phone help case opportunity price summary jeff distribution floor seat test location project work manager coal basis risk power deal interest gas trading end price domain june volume test team system backup power issue seat staff location note prc mark thank june help distribution month
p230
sg11
F947861.0
sg12
F228763.0
sg13
F506765.0
sg15
F49.0
sg16
F51587.0
sg17
I00
sg18
g19
sg20
F441096.0
sg21
F-125000.0
ssS'HERMANN ROBERT J'
p231
(dp232
g3
F262663.0
sg4
g25
sg5
g6
sg7
F1297461.0
sg8
F700000.0
sg26
S'robert.hermann@enron.com'
p233
sg9
g28
sg11
F668132.0
sg12
F48357.0
sg13
F187500.0
sg15
g29
sg16
F416441.0
sg17
I00
sg18
F150000.0
sg20
F480632.0
sg21
F-280000.0
ssS'SCRIMSHAW MATTHEW'
p234
(dp235
g3
g35
sg4
g25
sg5
g6
sg7
g36
sg8
g37
sg26
S'matthew.scrimshaw@enron.com'
p236
sg9
g28
sg11
F759557.0
sg12
g39
sg13
F759557.0
sg15
g29
sg16
g40
sg17
I00
sg18
g19
sg20
g62
sg21
g22
ssS'GATHMANN WILLIAM D'
p237
(dp238
g3
g35
sg4
g25
sg5
g6
sg7
g36
sg8
g37
sg26
g27
sg9
g28
sg11
F1945360.0
sg12
g39
sg13
F1753766.0
sg15
g29
sg16
g40
sg17
I00
sg18
g19
sg20
F264013.0
sg21
g22
ssS'HAEDICKE MARK E'
p239
(dp240
g3
F374125.0
sg4
F4009.0
sg5
F2157527.0
sg7
F3859065.0
sg8
F1150000.0
sg9
Vlist message copy px let corp service credit fax utility committee schedule board note discussion outlook presentation member point firm conference john haedicke counsel contact march fax document plan policy executive avg life user revenue europe metal entity fax phone letter law order matter price california counsel state party gas memo flow enrononline draft risk volume management change gas user department team contract ena process area support deal employee request
p241
sg11
F803094.0
sg12
F76169.0
sg13
F608750.0
sg15
F1941.0
sg16
F52382.0
sg17
I00
sg18
F983346.0
sg20
F524169.0
sg21
F-934484.0
ssS'BOWEN JR RAYMOND M'
p242
(dp243
g3
F278601.0
sg4
F1858.0
sg5
g6
sg7
F2669589.0
sg8
F1350000.0
sg9
Vprogram analyst prc activity member email team company effort month conference monday video request line friday power delainey market email comment site risk intranet trading day security jim john order charitygift gift houston employee review performance president result room holiday budget today corp market deal power agreement value delainey day jeff work message transaction issue charitygift counsel line credit system memo room friday holiday board approval limit policy unit process
p244
sg11
F252055.0
sg12
F65907.0
sg13
g14
sg15
F27.0
sg16
F1621.0
sg17
I01
sg18
F974293.0
sg20
F252055.0
sg21
F-833.0
ssS'GILLIS JOHN'
p245
(dp246
g3
g35
sg4
g25
sg5
g6
sg7
g36
sg8
g37
sg26
g27
sg9
g28
sg11
F85641.0
sg12
g39
sg13
F9803.0
sg15
g29
sg16
g40
sg17
I00
sg18
g19
sg20
F75838.0
sg21
g22
ssS'FITZGERALD JAY L'
p247
(dp248
g3
F199157.0
sg4
F936.0
sg5
g6
sg7
F1414857.0
sg8
F350000.0
sg9
Vpm effort ecommerce team week member work customer employee draft intranet login window order comment week summary join effort online work jay issue opportunity call week regard chairman month term firm fund investor round software funding energy exchange internet marketplace kiodex draft agreement comment call sale equity application stock deal mmbtus execution bbl coal weather regard team support part sale summary meeting part vice president unit week director quarter team
p249
sg11
F1621236.0
sg12
F23870.0
sg13
F664461.0
sg15
F16.0
sg16
F285414.0
sg17
I00
sg18
F556416.0
sg20
F956775.0
sg21
g22
ssS'MORAN MICHAEL P'
p250
(dp251
g3
g35
sg4
F672.0
sg5
g6
sg7
g36
sg8
g37
sg9
Vplan point df work effort mitigation quarter operation way mike document material presentation file discussion policy schedule problem phone capacity page chairman plant month role opportunity price commission utility corp supply march generation value california energy action load transmission cost unit credit activity hour corp counsel filing organization record contract presentation section phone offer partner houston interest deal work letter note list morning day houston december change schedule date california
p252
sg11
F221141.0
sg12
g39
sg13
F59539.0
sg15
F19.0
sg16
g40
sg17
I00
sg18
g19
sg20
F161602.0
sg21
g22
ssS'REDMOND BRIAN L'
p253
(dp254
g3
F96840.0
sg4
F1671.0
sg5
g6
sg7
F111529.0
sg8
g37
sg9
Vcontract power deal day way agreement risk cost project position location friday conference center committee louise credit june tomorrow desk anyone transaction memo value hpl order product item access action let bridgeline cc jim phone morning response origination budget line mark john employee louise performance name david program change budget room delainey detail guy market unit hotel project director resource letter news prc houston aep result part schedule tomorrow hpl
p255
sg11
F7890324.0
sg12
F14689.0
sg13
F7509039.0
sg15
F221.0
sg16
g40
sg17
I00
sg18
g19
sg20
F381285.0
sg21
g22
ssS'BAZELIDES PHILIP J'
p256
(dp257
g3
F80818.0
sg4
g25
sg5
F684694.0
sg7
F860136.0
sg8
g37
sg26
g27
sg9
g28
sg11
F1599641.0
sg12
g39
sg13
F1599641.0
sg15
g29
sg16
F874.0
sg17
I00
sg18
F93750.0
sg20
g62
sg21
g22
ssS'BELDEN TIMOTHY N'
p258
(dp259
g3
F213999.0
sg4
F7991.0
sg5
F2144013.0
sg7
F5501630.0
sg8
F5249999.0
sg9
Vproduct value user email document entity access list management response vote press transmission access language proposal senate member px decision crisis summer department emergency news program consumer capacity refund unit list management review employee jeff june march request period line tim john list iso party policy help administration need judge trading trade trader desk risk position letter need project tim edison epmi pge bankruptcy palo court puc bond source pacific
p260
sg11
F1110705.0
sg12
F17355.0
sg13
F953136.0
sg15
F484.0
sg16
F210698.0
sg17
I01
sg18
g19
sg20
F157569.0
sg21
F-2334434.0
ssS'DURAN WILLIAM D'
p261
(dp262
g3
F210692.0
sg4
F904.0
sg5
g6
sg7
F2093263.0
sg8
F750000.0
sg9
Vcommission rate filing ferc utility interconnection epmi load authority ee everyone john generation strategy david coal duran point site plant party letter contract thursday item consent interest turbine ben july board state march epmi contract ferc client term credit sale analyst vp employee peer area program resource feedback focus part topic reminder staff note outlook migration access kay response mailbox mark john gas support month thursday plant letter member request
p263
sg11
F1640910.0
sg12
F25785.0
sg13
F1451869.0
sg15
F12.0
sg16
F1568.0
sg17
I00
sg18
F1105218.0
sg20
F189041.0
sg21
g22
ssS'THORN TERENCE H'
p264
(dp265
g3
F222093.0
sg4
F266.0
sg5
F16586.0
sg7
F911453.0
sg8
g37
sg9
Vaction name panel ecommerce page document date electricity practice place letter participation contribution date europe report recommendation street rate growth name problem session look list document china carol tariff step chairman role budget marketing pipeline communication leader responsibility priority saudi target mike david mexico initiative mission rate export price address pilot event point level story slide partner saudi technology step vice round labor bob morning page demonstrator look street event
p266
sg11
F4817796.0
sg12
F46145.0
sg13
F4452476.0
sg15
F41.0
sg16
F426629.0
sg17
I00
sg18
F200000.0
sg20
F365320.0
sg21
g22
ssS'FASTOW ANDREW S'
p267
(dp268
g3
F440698.0
sg4
g25
sg5
g6
sg7
F2424083.0
sg8
F1300000.0
sg26
S'andrew.fastow@enron.com'
p269
sg9
g28
sg11
F1794412.0
sg12
F55921.0
sg13
g14
sg15
g29
sg16
F277464.0
sg17
I01
sg18
F1736055.0
sg20
F1794412.0
sg21
F-1386055.0
ssS'FOY JOE'
p270
(dp271
g3
g35
sg4
F57.0
sg5
F181755.0
sg7
F181755.0
sg8
g37
sg9
Vcredit cle form participatory course attendance texas october distribution heinitz change ena future cooperation picture michelle bowling linda cash derrick holiday august today elena kitchen online boyd clifford louise chance schedule louise tuesday week anything accommodation criticism program hope event trading august day problem david paternity hear ext raisler clifford committee number review participant conjunction thank canada pas month august presentation issue copy diligence staff transaction material addressee justinamita arise
p272
sg11
F343434.0
sg12
g39
sg13
F343434.0
sg15
F13.0
sg16
g40
sg17
I00
sg18
g19
sg20
g62
sg21
g22
ssS'CALGER CHRISTOPHER F'
p273
(dp274
g3
F240189.0
sg4
F2598.0
sg5
g6
sg7
F1639297.0
sg8
F1250000.0
sg9
Vjune cap result analysis approval refund load get level development management dwr cpuc budget bond payment puc judge language revenue john turbine board bid value language tax regard schedule asset news pge measure legislature court pacific money law operator supplier march facility requirement program release section seller air emergency load room list regard discussion contact unit team ena performance employee email draft message letter party morning vote request monday legislation
p275
sg11
F126027.0
sg12
F35818.0
sg13
g14
sg15
F144.0
sg16
F486.0
sg17
I01
sg18
F375304.0
sg20
F126027.0
sg21
F-262500.0
ssS'RICE KENNETH D'
p276
(dp277
g3
F420636.0
sg4
F905.0
sg5
g6
sg7
F505050.0
sg8
F1750000.0
sg9
Vmarket activity week group day strategy issue investment linda part policy fax broadband service corp street rule houston june today copy draft network john announcement comment organization program president email assistant phone mark holiday greg party lay invitation schedule regard video conference location boardroom sherri program request monday floor unit gift card charity note change holiday director list share person idea message presentation weekend list employee member organization email analyst
p278
sg11
F22542539.0
sg12
F46950.0
sg13
F19794175.0
sg15
F18.0
sg16
F174839.0
sg17
I01
sg18
F1617011.0
sg20
F2748364.0
sg21
F-3504386.0
ssS'KAMINSKI WINCENTY J'
p279
(dp280
g3
F275101.0
sg4
F4607.0
sg5
g6
sg7
F1086821.0
sg8
F400000.0
sg9
Vresume article report power trading position interest comment interview john summer team dinner program student meet member opportunity school director stinson request version book thank change need order review note shirley interview subject morning schedule visit hi march problem plan finance john department professor paper school address room program list model credit file month curve cost today deal analysis site corp gas service pricing weather product power industry technology development
p281
sg11
F976037.0
sg12
F83585.0
sg13
F850010.0
sg15
F14368.0
sg16
F4669.0
sg17
I00
sg18
F323466.0
sg20
F126027.0
sg21
g22
ssS'COX DAVID'
p282
(dp283
g3
F314288.0
sg4
F102.0
sg5
g6
sg7
F1101393.0
sg8
F800000.0
sg9
Veveryone use bill anything contact recipient everything need rate confidentiality reference concern hood internet chris blotter communicate entry hereby field day let reference thing entry date report support trading position john enpower hour business steiner bill paul team network vince bill ad card internet hood akin pacific week need line salisbury asem holden atta matter link status steiner subject work request parker rd chris order join need notification day type
p284
sg11
F495633.0
sg12
F27861.0
sg13
F117551.0
sg15
F33.0
sg16
F494.0
sg17
I00
sg18
g19
sg20
F378082.0
sg21
F-41250.0
ssS'OVERDYKE JR JERE C'
p285
(dp286
g3
F94941.0
sg4
g25
sg5
g6
sg7
F249787.0
sg8
g37
sg26
S'jere.overdyke@enron.com'
p287
sg9
g28
sg11
F7307594.0
sg12
F18834.0
sg13
F5266578.0
sg15
g29
sg16
F176.0
sg17
I00
sg18
F135836.0
sg20
F2041016.0
sg21
g22
ssS'PEREIRA PAULO V. FERRAZ'
p288
(dp289
g3
g35
sg4
g25
sg5
g6
sg7
F27942.0
sg8
g37
sg26
g27
sg9
g28
sg11
g66
sg12
F27942.0
sg13
g14
sg15
g29
sg16
g40
sg17
I00
sg18
g19
sg20
g62
sg21
F-101250.0
ssS'STABLER FRANK'
p290
(dp291
g3
F239502.0
sg4
g25
sg5
g6
sg7
F1112087.0
sg8
F500000.0
sg26
S'frank.stabler@enron.com'
p292
sg9
g28
sg11
F511734.0
sg12
F16514.0
sg13
g14
sg15
g29
sg16
F356071.0
sg17
I00
sg18
g19
sg20
F511734.0
sg21
g22
ssS'SKILLING JEFFREY K'
p293
(dp294
g3
F1111258.0
sg4
F3627.0
sg5
g6
sg7
F8682716.0
sg8
F5600000.0
sg9
Vpower mark energy gas trading price corp california electricity cost note schedule bill change line message risk trading solution state avg percentage metal use presentation service email effort let order link order access comment site center experience list employee project presentation use volume list june houston issue city member conference conference program member service director board location request technology ceo phone email copy let fax message mr way thing place
p295
sg11
F26093672.0
sg12
F29336.0
sg13
F19250000.0
sg15
F108.0
sg16
F22122.0
sg17
I01
sg18
F1920000.0
sg20
F6843672.0
sg21
g22
ssS'BLAKE JR. NORMAN P'
p296
(dp297
g3
g35
sg4
g25
sg5
g6
sg7
F1279.0
sg8
g37
sg26
g27
sg9
g28
sg11
g66
sg12
F1279.0
sg13
g14
sg15
g29
sg16
g40
sg17
I00
sg18
g19
sg20
g62
sg21
F-113784.0
ssS'SHERRICK JEFFREY B'
p298
(dp299
g3
g35
sg4
F613.0
sg5
g6
sg7
g36
sg8
g37
sg9
Vprogram deal employee change power asset month process sale development phone cell organization weekend member john analyst fax hour mark governor linda staff rule corp stock trading power role chairman director houston room review management name list development part president invitation party bill regard work announcement week idea schedule message dont board note let email service place mark term team conference center conf passcode dialin memo list note bill change
p300
sg11
F1832468.0
sg12
g39
sg13
F1426469.0
sg15
F25.0
sg16
g40
sg17
I00
sg18
g19
sg20
F405999.0
sg21
g22
ssS'PRENTICE JAMES'
p301
(dp302
g3
g35
sg4
g25
sg5
F564348.0
sg7
F564348.0
sg8
g37
sg26
S'james.prentice@enron.com'
p303
sg9
g28
sg11
F1095040.0
sg12
g39
sg13
F886231.0
sg15
g29
sg16
g40
sg17
I00
sg18
g19
sg20
F208809.0
sg21
g22
ssS'GRAY RODNEY'
p304
(dp305
g3
F6615.0
sg4
g25
sg5
F93585.0
sg7
F1146658.0
sg8
g37
sg26
g27
sg9
g28
sg11
g66
sg12
g39
sg13
g14
sg15
g29
sg16
F680833.0
sg17
I00
sg18
F365625.0
sg20
g62
sg21
g22
ssS'PICKERING MARK R'
p306
(dp307
g3
F655037.0
sg4
F898.0
sg5
g6
sg7
F1386690.0
sg8
F300000.0
sg9
Vuse trade issue gas power review employee deal move part technology greg officer cc louise phone president john yesterday review employee call way service hour market support asset unit operation location floor seat test move outage project phone plan hour version launch look george corp announcement trade houston week capital window login week security basis announcement effort team deal houston summary change office document regard trading chairman officer corp problem
p308
sg11
F28798.0
sg12
F31653.0
sg13
F28798.0
sg15
F67.0
sg16
g40
sg17
I00
sg18
g19
sg20
g62
sg21
g22
ssS'NOLES JAMES L'
p309
(dp310
g3
g35
sg4
g25
sg5
F774401.0
sg7
F774401.0
sg8
g37
sg26
g27
sg9
g28
sg11
F368705.0
sg12
g39
sg13
g14
sg15
g29
sg16
g40
sg17
I00
sg18
g19
sg20
F463261.0
sg21
g22
ssS'KEAN STEVEN J'
p311
(dp312
g3
F404338.0
sg4
F12754.0
sg5
g6
sg7
F1747522.0
sg8
F1000000.0
sg9
Vpresident deregulation risk trading credit chairman tax deal corp development john help project case interest area contract decision house deal letter transaction press position director administration solution development industry summer draft document value yesterday management news press agreement share governor employee member program unit department document management amount hour development ferc board transmission cap corp access site thing proposal generation line crisis staff legislation law davis action consumer supply demand
p313
sg11
F6153642.0
sg12
F41953.0
sg13
F2022048.0
sg15
F6759.0
sg16
F1231.0
sg17
I00
sg18
F300000.0
sg20
F4131594.0
sg21
g22
ssS'FOWLER PEGGY'
p314
(dp315
g3
g35
sg4
F517.0
sg5
g6
sg7
g36
sg8
g37
sg9
Vlocation employee houston night drive move address time document enron client outlook access mailbox concern web note question mail message change home order floor work address problem center machine network session pm information question tomorrow thing card date location employee note email list outlook migration access user group anyone name thank meeting month today week change service date gas inc deal book button migration information volume sitara outlook day date
p316
sg11
F1884748.0
sg12
g39
sg13
F1324578.0
sg15
F36.0
sg16
g40
sg17
I00
sg18
g19
sg20
F560170.0
sg21
g22
ssS'WASAFF GEORGE'
p317
(dp318
g3
F259996.0
sg4
F400.0
sg5
F831299.0
sg7
F1034395.0
sg8
F325000.0
sg9
Vagenda power accounting room see phone month committee corp engine pledge subcommittee participation way goal school success responsibility level part mike responsibility houston schedule meet help europe causey month agreement president accounting today room cost call europe location houston allan september size constraint program conference idea goal center accounting area pilot thank louise activity application im portal solution sign day staff today basis location day let help houston need agenda
p319
sg11
F2056427.0
sg12
g39
sg13
F1668260.0
sg15
F30.0
sg16
F1425.0
sg17
I00
sg18
F200000.0
sg20
F388167.0
sg21
F-583325.0
ssS'WHITE JR THOMAS E'
p320
(dp321
g3
F317543.0
sg4
g25
sg5
g6
sg7
F1934359.0
sg8
F450000.0
sg26
S'thomas.white@enron.com'
p322
sg9
g28
sg11
F15144123.0
sg12
F81353.0
sg13
F1297049.0
sg15
g29
sg16
F1085463.0
sg17
I00
sg18
g19
sg20
F13847074.0
sg21
g22
ssS'CHRISTODOULOU DIOMEDES'
p323
(dp324
g3
g35
sg4
g25
sg5
g6
sg7
g36
sg8
g37
sg26
S'diomedes.christodoulou@enron.com'
p325
sg9
g28
sg11
F6077885.0
sg12
g39
sg13
F5127155.0
sg15
g29
sg16
g40
sg17
I00
sg18
g19
sg20
F950730.0
sg21
g22
ssS'ALLEN PHILLIP K'
p326
(dp327
g3
F201955.0
sg4
F2902.0
sg5
F2869717.0
sg7
F4484442.0
sg8
F4175000.0
sg9
Vtomorrow email access product outlook committee ferc point book pge comment utility demand davis governor ferc commission source contract corp veronica copy file message note email tax comment company utility trading program basis way lot manager support month desk email desk business pipeline system customer conference help term cash product unit enron project march service loan list agreement business period change position office need resource corp system hour enron value
p328
sg11
F1729541.0
sg12
F13868.0
sg13
F1729541.0
sg15
F2195.0
sg16
F152.0
sg17
I00
sg18
F304805.0
sg20
F126027.0
sg21
F-3081055.0
ssS'SHARP VICTORIA T'
p329
(dp330
g3
F248146.0
sg4
F3136.0
sg5
F187469.0
sg7
F1576511.0
sg8
F600000.0
sg9
Vpx letter draft jim claim mark response place situation request ee list file attorney case transaction court section provision result release email iso sce jan section inc contact notice discus room da amendment burton puc june provision sb hearing assembly filing account unit supplier dwr cash debt pacific court emergency solution government capacity gov iep address thing hour cap profit fax document mark executive legislation email note help letter contact
p331
sg11
F494136.0
sg12
F116337.0
sg13
F281073.0
sg15
F136.0
sg16
F2401.0
sg17
I00
sg18
F422158.0
sg20
F213063.0
sg21
g22
ssS'JAEDICKE ROBERT'
p332
(dp333
g3
g35
sg4
g25
sg5
g6
sg7
F83750.0
sg8
g37
sg26
g27
sg9
g28
sg11
F431750.0
sg12
g39
sg13
F431750.0
sg15
g29
sg16
g40
sg17
I00
sg18
g19
sg20
F44093.0
sg21
F-25000.0
ssS'WINOKUR JR. HERBERT S'
p334
(dp335
g3
g35
sg4
g25
sg5
g6
sg7
F84992.0
sg8
g37
sg26
g27
sg9
g28
sg11
g66
sg12
F1413.0
sg13
g14
sg15
g29
sg16
g40
sg17
I00
sg18
g19
sg20
g62
sg21
F-25000.0
ssS'BROWN MICHAEL'
p336
(dp337
g3
g35
sg4
F1486.0
sg5
g6
sg7
F49288.0
sg8
g37
sg9
Vmr spring pipeline texas gasoline creditor bonus car game suit morning calpine border subsidiary environment chapter safety reform traffic attempt computer storage investor refund creditor reliant word pipeline equipment fee settlement user session focus fee suit creditor task book bid afternoon coal bid wood task emission land settlement book fee book focus family orange income majority settlement investor fire game notice evidence bid game income storage conflict focus computer fee
p338
sg11
g66
sg12
F49288.0
sg13
g14
sg15
F41.0
sg16
g40
sg17
I00
sg18
g19
sg20
g62
sg21
g22
ssS'BADUM JAMES P'
p339
(dp340
g3
g35
sg4
g25
sg5
F178980.0
sg7
F182466.0
sg8
g37
sg26
g27
sg9
g28
sg11
F257817.0
sg12
F3486.0
sg13
F257817.0
sg15
g29
sg16
g40
sg17
I00
sg18
g19
sg20
g62
sg21
g22
ssS'HUGHES JAMES A'
p341
(dp342
g3
g35
sg4
F719.0
sg5
g6
sg7
g36
sg8
g37
sg9
Vmorning office employee weekend comment hour rick floor organization john interest level report month state power company government system rate location note plan person floor prc list line change room memo presentation draft law project change power team statement rebecca assistant gift charity card center area peer governor unit program bill mark force line task president responsibility market vice director tuesday budget asset rebecca agreement plant project supply fuel discussion
p343
sg11
F1118394.0
sg12
g39
sg13
F754966.0
sg15
F34.0
sg16
g40
sg17
I00
sg18
g19
sg20
F363428.0
sg21
g22
ssS'REYNOLDS LAWRENCE'
p344
(dp345
g3
F76399.0
sg4
g25
sg5
F51365.0
sg7
F394475.0
sg8
F100000.0
sg26
g27
sg9
g28
sg11
F4221891.0
sg12
F8409.0
sg13
F4160672.0
sg15
g29
sg16
F202052.0
sg17
I00
sg18
F156250.0
sg20
F201483.0
sg21
F-200000.0
ssS'DIMICHELE RICHARD G'
p346
(dp347
g3
F262788.0
sg4
g25
sg5
g6
sg7
F2368151.0
sg8
F1000000.0
sg26
S'richard.dimichele@enron.com'
p348
sg9
g28
sg11
F8317782.0
sg12
F35812.0
sg13
F8191755.0
sg15
g29
sg16
F374689.0
sg17
I00
sg18
F694862.0
sg20
F126027.0
sg21
g22
ssS'BHATNAGAR SANJAY'
p349
(dp350
g3
g35
sg4
F523.0
sg5
g6
sg7
F15456290.0
sg8
g37
sg9
Vdecember employee invitation work rick reference community schedule regard house video sherri monday passcode connection katherine conf serum dialin request director management change policy discus organization review company development strategy message idea governor staff carol assistant power john communication group note change cindy memo olson approach idea email strategy agreement center assistant cell invitation schedule rule company trading world opportunity weekend effort detail issue india hour organization president linda secretary
p351
sg11
g66
sg12
g39
sg13
F2604490.0
sg15
F29.0
sg16
F137864.0
sg17
I00
sg18
g19
sg20
F-2604490.0
sg21
g22
ssS'CARTER REBECCA C'
p352
(dp353
g3
F261809.0
sg4
F312.0
sg5
g6
sg7
F477557.0
sg8
F300000.0
sg9
Vparty book phone survey qualification sheet practice llc parent liability year thing memo letter work life mark staff address contact let japan power sr office network team opportunity memo interest pilot reason clock part agreement partnership program rsvp condition term president area england counsel form page contract week message sr question call number review executive location system conference andor organization executive tel name id password evidence floor file change december
p354
sg11
g66
sg12
g39
sg13
g14
sg15
F15.0
sg16
F540.0
sg17
I00
sg18
F75000.0
sg20
F307301.0
sg21
F-159792.0
ssS'BUCHANAN HAROLD G'
p355
(dp356
g3
F248017.0
sg4
F1088.0
sg5
g6
sg7
F1054637.0
sg8
F500000.0
sg9
Vcapacity list rate release schedule month dennis date tariff period morning control imbalance pipeline steve cycle nomination shelley business schedule number market use process group email marketing vernon office nomination randy joe janzen robert janet harry sherry woodson linda debra weekend volume conference tw note march shelley darrell schoolcraft file resolution center server storage home problem file application draft allocation moore jan office poi delivery receipt comment meter march tw
p357
sg11
F1014505.0
sg12
F600.0
sg13
F825464.0
sg15
F125.0
sg16
F1215.0
sg17
I00
sg18
F304805.0
sg20
F189041.0
sg21
g22
ssS'YEAP SOON'
p358
(dp359
g3
g35
sg4
g25
sg5
g6
sg7
F55097.0
sg8
g37
sg26
g27
sg9
g28
sg11
F192758.0
sg12
F55097.0
sg13
F192758.0
sg15
g29
sg16
g40
sg17
I00
sg18
g19
sg20
g62
sg21
g22
ssS'MURRAY JULIA H'
p360
(dp361
g3
F229284.0
sg4
F2192.0
sg5
g6
sg7
F812194.0
sg8
F400000.0
sg9
Vpower master contract work comment state trading carol credit st haedicke location today room help june message date support director report telephone master call janette transaction number matter order issue regard database julia let murray access assistant street market george company corp evidence party director llc deb mail energy memo request week employee document plan area team ena program system conference law everyone item center hour presentation outlook migration training
p362
sg11
F597461.0
sg12
F57580.0
sg13
F400478.0
sg15
F45.0
sg16
F330.0
sg17
I00
sg18
F125000.0
sg20
F196983.0
sg21
g22
ssS'GARLAND C KEVIN'
p363
(dp364
g3
F231946.0
sg4
F209.0
sg5
g6
sg7
F1566469.0
sg8
F850000.0
sg9
Vproject number monday manager way resource employee corp ew schedule donna compliance rick policy lasalle security board call risk approval location tuesday budget houston quarter trading jeff power monday share floor participation team interview level monday schedule leader invitation tuesday deal market report use capital technology manage portfolio employee position level mark loan school memo swap credit amount look greg name invitation associateanalyst leader summer department executive help lay world
p365
sg11
F896153.0
sg12
F48405.0
sg13
F636246.0
sg15
F44.0
sg16
F60814.0
sg17
I00
sg18
F375304.0
sg20
F259907.0
sg21
g22
ssS'DODSON KEITH'
p366
(dp367
g3
F221003.0
sg4
F176.0
sg5
g6
sg7
F319941.0
sg8
F70000.0
sg9
Vposition deal board team contract opportunity process houston price month day keith house participation move property home pm today opportunity joannie noon guarantee calendar var life equipment construction engineering contract cst june calendar power japan encom carey chairman ceo corp pas ticket diamond game level greg hour term contract joannie monday sheila prc committee ew market president vice houston colonnade group part message ew louise participation presentation management bruce allocation
p368
sg11
g66
sg12
F28164.0
sg13
g14
sg15
F14.0
sg16
F774.0
sg17
I00
sg18
g19
sg20
g62
sg21
g22
ssS'YEAGER F SCOTT'
p369
(dp370
g3
F158403.0
sg4
g25
sg5
g6
sg7
F360300.0
sg8
g37
sg26
S'scott.yeager@enron.com'
p371
sg9
g28
sg11
F11884758.0
sg12
F53947.0
sg13
F8308552.0
sg15
g29
sg16
F147950.0
sg17
I01
sg18
g19
sg20
F3576206.0
sg21
g22
ssS'HIRKO JOSEPH'
p372
(dp373
g3
g35
sg4
g25
sg5
F10259.0
sg7
F91093.0
sg8
g37
sg26
S'joe.hirko@enron.com'
p374
sg9
g28
sg11
F30766064.0
sg12
F77978.0
sg13
F30766064.0
sg15
g29
sg16
F2856.0
sg17
I01
sg18
g19
sg20
g62
sg21
g22
ssS'DIETRICH JANET R'
p375
(dp376
g3
F250100.0
sg4
F2572.0
sg5
g6
sg7
F1410464.0
sg8
F600000.0
sg9
Vconference mark budget schedule staff amount david john work jim access da agreement edison puc vote bond decision senate dwr veronica bradford location request line conference use list july prc program employee prc ena detail chairman performance member resource team california facility ferc position region price problem ee addition transmission risk team project unit transaction position turbine trading end effort ee jim discussion comment list activity support unit program summer
p377
sg11
F1865087.0
sg12
F3475.0
sg13
F1550019.0
sg15
F63.0
sg16
F473.0
sg17
I00
sg18
F556416.0
sg20
F315068.0
sg21
g22
ssS'DERRICK JR. JAMES V'
p378
(dp379
g3
F492375.0
sg4
F2181.0
sg5
g6
sg7
F550981.0
sg8
F800000.0
sg9
Vmanagement party board program share file officer employee note analyst memo change comment note mr regard john id day trading line bill california list department litigation merger market team lawyer recipient today john organization houston copy partnership transaction system partner phone request matter firm state project court case use agreement policy unit support role risk cost activity opportunity price trading document status expense amount approval payment name employee day state
p380
sg11
F8831913.0
sg12
F51124.0
sg13
F8831913.0
sg15
F909.0
sg16
F7482.0
sg17
I00
sg18
F484000.0
sg20
F1787380.0
sg21
F-1284000.0
ssS'FREVERT MARK A'
p381
(dp382
g3
F1060932.0
sg4
F3275.0
sg5
F6426990.0
sg7
F17252530.0
sg8
F2000000.0
sg9
Vjohn unit work delainey project support david position risk energy message email site access customer order list announcement security commission volume release press draft gas price trading trade activity state list jeff program analyst member line message team chairman effort use policy employee corp director issue review president process houston conference location monday june video staff basis line houston detail note office department lay detail president director government video service
p383
sg11
F14622185.0
sg12
F86987.0
sg13
F10433518.0
sg15
F21.0
sg16
F7427621.0
sg17
I00
sg18
F1617011.0
sg20
F4188667.0
sg21
F-3367011.0
ssS'PAI LOU L'
p384
(dp385
g3
F261879.0
sg4
g25
sg5
g6
sg7
F3123383.0
sg8
F1000000.0
sg26
S'lou.pai@enron.com'
p386
sg9
g28
sg11
F23817930.0
sg12
F32047.0
sg13
F15364167.0
sg15
g29
sg16
F1829457.0
sg17
I00
sg18
g19
sg20
F8453763.0
sg21
g22
ssS'BAY FRANKLIN R'
p387
(dp388
g3
F239671.0
sg4
g25
sg5
F260455.0
sg7
F827696.0
sg8
F400000.0
sg26
S'frank.bay@enron.com'
p389
sg9
g28
sg11
F63014.0
sg12
F129142.0
sg13
g14
sg15
g29
sg16
F69.0
sg17
I00
sg18
g19
sg20
F145796.0
sg21
F-201641.0
ssS'HAYSLETT RODERICK J'
p390
(dp391
g3
g35
sg4
F2649.0
sg5
g6
sg7
g36
sg8
g37
sg9
Vthank bill office line contact mark interest date pipeline let committee executive phone houston staff goal program list request note tracy geaccone file fw kevin john project message revenue request gas comment let email power today california market energy group cost order risk position system agreement deal management company project wireless room conference state office capital process organization let model review use organization date need analyst credit month rating discussion
p392
sg11
F346663.0
sg12
g39
sg13
g14
sg15
F1061.0
sg16
g40
sg17
I00
sg18
g19
sg20
F346663.0
sg21
g22
ssS'FUGH JOHN L'
p393
(dp394
g3
g35
sg4
g25
sg5
F50591.0
sg7
F50591.0
sg8
g37
sg26
g27
sg9
g28
sg11
F176378.0
sg12
g39
sg13
F176378.0
sg15
g29
sg16
g40
sg17
I00
sg18
g19
sg20
g62
sg21
g22
ssS'FALLON JAMES B'
p395
(dp396
g3
F304588.0
sg4
F1755.0
sg5
g6
sg7
F3676340.0
sg8
F2500000.0
sg9
Vsite intranet login comment window basis access customer list link charitygift gift monday conference location video mayfield charity person floor phone assistant fax line charitygift price jeff mayfield corp office presentation domain volume june power issue system greg trading jeffrey program fallon mark change jeff member david area jeffrey analyst market trading service risk power operation activity support end energy joannie home team work employee period email office video greg
p397
sg11
F2332399.0
sg12
F95924.0
sg13
F940257.0
sg15
F75.0
sg16
F401481.0
sg17
I00
sg18
F374347.0
sg20
F1392142.0
sg21
g22
ssS'KOENIG MARK E'
p398
(dp399
g3
F309946.0
sg4
F2374.0
sg5
g6
sg7
F1587421.0
sg8
F700000.0
sg9
Vconference location video monday note line office houston bill unit schedule john investor office houston board service jeff week energy jeff california credit energy amount decision action market point charitygift link site intranet access announcement outlook order migration security point use communication customer department month problem corp state california price charitygift volume corp program trading analyst gas street unit resource release press change market issue work merger note agreement deal
p400
sg11
F1920055.0
sg12
F127017.0
sg13
F671737.0
sg15
F61.0
sg16
F150458.0
sg17
I01
sg18
F300000.0
sg20
F1248318.0
sg21
g22
ssS'SAVAGE FRANK'
p401
(dp402
g3
g35
sg4
g25
sg5
g6
sg7
F3750.0
sg8
g37
sg26
g27
sg9
g28
sg11
g66
sg12
g39
sg13
g14
sg15
g29
sg16
g40
sg17
I00
sg18
g19
sg20
g62
sg21
F-121284.0
ssS'IZZO LAWRENCE L'
p403
(dp404
g3
F85274.0
sg4
F496.0
sg5
g6
sg7
F1979596.0
sg8
g37
sg9
Vdecember organization weekend hotel candidate analyst interview breakfast today morning company management memo change cindy reading bill message idea olson invitation party phone permit work cell jennifer governor week mark note list change opportunity service idea carol place email john depelchin center contract price project dash agreement permit eecc risk director site issue project risk delainey mark regard force effort video serum conf dialin passcode katherine employee office rick reference
p405
sg11
F5819980.0
sg12
F28093.0
sg13
F2165172.0
sg15
F19.0
sg16
F1553729.0
sg17
I00
sg18
F312500.0
sg20
F3654808.0
sg21
g22
ssS'TILNEY ELIZABETH A'
p406
(dp407
g3
F247338.0
sg4
F460.0
sg5
g6
sg7
F399393.0
sg8
F300000.0
sg9
Vphone video director survey force executive event los management help value system help share deal performance facility transmission commission action pge bankruptcy letter credit news action rate cap deal impact email julie proposal crisis policy mitigation recommendation outage capacity impact offer recommendation concern end risk analyst corp access chairman president product show megawatthour quarter water firm spokesman industry july agency outage management air board emission facility line pricing capacity district
p408
sg11
F1168042.0
sg12
g39
sg13
F591250.0
sg15
F19.0
sg16
F152055.0
sg17
I00
sg18
F275000.0
sg20
F576792.0
sg21
F-575000.0
ssS'MARTIN AMANDA K'
p409
(dp410
g3
F349487.0
sg4
F1522.0
sg5
F85430.0
sg7
F8407016.0
sg8
g37
sg9
Vlaura management card security everyone friday program share resource stock vanek insure note inc company deal file year list process jim texas agreement contract document power transaction customer cc schedule let mark review cc list interview problem price event track fax louise morning market weather look use option service bcfd session track candidate interview schedule opportunity thing thursday detail event test simulation originator process book environment seat operation risk technology
p411
sg11
F2070306.0
sg12
F8211.0
sg13
F2070306.0
sg15
F230.0
sg16
F2818454.0
sg17
I00
sg18
F5145434.0
sg20
g62
sg21
g22
ssS'BUY RICHARD B'
p412
(dp413
g3
F330546.0
sg4
F3523.0
sg5
F649584.0
sg7
F2355702.0
sg8
F900000.0
sg9
Vviolation gas var position limit transaction approval book asset value note power comment credit california amount price state deal list john fax corp david mark cc place bill system let today day executive px plan pge detail help action month conference contact location employee team rac member work buy unit copy presentation june jeff transaction sale schedule board trade capital message phone email communication order houston customer agreement energy issue
p414
sg11
F3444470.0
sg12
g39
sg13
F2542813.0
sg15
F1053.0
sg16
F400572.0
sg17
I00
sg18
F769862.0
sg20
F901657.0
sg21
F-694862.0
ssS'GRAMM WENDY L'
p415
(dp416
g3
g35
sg4
g25
sg5
g6
sg7
F119292.0
sg8
g37
sg26
g27
sg9
g28
sg11
g66
sg12
g39
sg13
g14
sg15
g29
sg16
g40
sg17
I00
sg18
g19
sg20
g62
sg21
g22
ssS'CAUSEY RICHARD A'
p417
(dp418
g3
F415189.0
sg4
F1892.0
sg5
g6
sg7
F1868758.0
sg8
F1000000.0
sg9
Vpower gas policy board houston market rick risk price project charitygift comment center line employee share issue holiday unit cost phone location holiday monday video conference dpr floor person trading candidate interview member offer analyst summer effort detail rick program corp issue employee value report service agreement unit problem trading program analyst john opportunity chairman company unit development role credit note email message today california name person concern price loss
p419
sg11
F2502063.0
sg12
F30674.0
sg13
g14
sg15
F49.0
sg16
F307895.0
sg17
I01
sg18
F350000.0
sg20
F2502063.0
sg21
F-235000.0
ssS'TAYLOR MITCHELL S'
p420
(dp421
g3
F265214.0
sg4
F533.0
sg5
F227449.0
sg7
F1092663.0
sg8
F600000.0
sg9
Vnote copy outlook crisis address point message team use access support team copy hour application participant request phone intervention effort responsibility task force sierra proposal generation effort participation phone help participant transfer sce message tariff approval letter payment fielder utility cdwr letter court matter help party payment participation agreement everyone protest yesterday everyone mitigation report problem staff sec system plant jan day office year change mark agreement customer cdwr news
p422
sg11
F3745048.0
sg12
g39
sg13
F3181250.0
sg15
F29.0
sg16
g40
sg17
I00
sg18
g19
sg20
F563798.0
sg21
g22
ssS'DONAHUE JR JEFFREY M'
p423
(dp424
g3
F278601.0
sg4
F865.0
sg5
g6
sg7
F875760.0
sg8
F800000.0
sg9
Vasset work team resource energy issue meet goal risk approval cost newsletter service point sale investment value asset price team power technology gas plant development march sale work trip deal friday topic staff committee june july project calendar note memo guy donahue mark presentation deal memo strategy comment transaction development program unit performance employee name request participation system support vice fax agenda houston calendar detail transaction day email part schedule
p425
sg11
F1080988.0
sg12
F96268.0
sg13
F765920.0
sg15
F22.0
sg16
F891.0
sg17
I00
sg18
g19
sg20
F315068.0
sg21
F-300000.0
ssS'GLISAN JR BEN F'
p426
(dp427
g3
F274975.0
sg4
F873.0
sg5
g6
sg7
F1272284.0
sg8
F600000.0
sg9
Vhouston market power director support equity deal program exposure john gift charity card center holiday transaction assistant comment email note change joannie note capacity ben email credit raptor office paper unit activity effort analyst interview prc peer candidate team program location video passcode conf dialin person sherri release review prc holiday today sherri gift board john bill location assistant charity phone assistant idea bill fax corp message policy houston trading
p428
sg11
F778546.0
sg12
F125978.0
sg13
F384728.0
sg15
F16.0
sg16
F200308.0
sg17
I01
sg18
F71023.0
sg20
F393818.0
sg21
g22
ss.