(dp0
S'METTS MARK'
p1
(dp2
S'to_messages'
p3
I807
sS'deferral_payments'
p4
S'NaN'
p5
sS'expenses'
p6
I94299
sVcausey
p7
I0
sS'poi'
p8
I00
sS'long_term_incentive'
p9
g5
sS'email_address'
p10
S'mark.metts@enron.com'
p11
sS'deferred_income'
p12
g5
sVbroadband
p13
I0
sS'restricted_stock_deferred'
p14
g5
sS'shared_receipt_with_poi'
p15
I702
sS'loan_advances'
p16
g5
sS'from_messages'
p17
I29
sS'other'
p18
I1740
sVpercentage
p19
I0
sS'director_fees'
p20
g5
sVmedium
p21
I0
sS'bonus'
p22
I600000
sVreporting
p23
I0
sS'total_stock_value'
p24
I585062
sS'from_poi_to_this_person'
p25
I38
sS'from_this_person_to_poi'
p26
I1
sS'restricted_stock'
p27
I585062
sS'salary'
p28
I365788
sS'total_payments'
p29
I1061827
sS'exercised_stock_options'
p30
g5
ssS'BAXTER JOHN C'
p31
(dp32
g3
g5
sg4
I1295738
sg6
I11200
sg7
I0
sg8
I00
sg9
I1586055
sg10
g5
sg12
I-1386055
sg13
I0
sg14
g5
sg15
g5
sg16
g5
sg17
g5
sg18
I2660303
sg19
I0
sg20
g5
sg21
I0
sg22
I1200000
sg23
I0
sg24
I10623258
sg25
g5
sg26
g5
sg27
I3942714
sg28
I267102
sg29
I5634343
sg30
I6680544
ssS'ELLIOTT STEVEN'
p33
(dp34
g3
g5
sg4
g5
sg6
I78552
sg7
I0
sg8
I00
sg9
g5
sg10
S'steven.elliott@enron.com'
p35
sg12
I-400729
sg13
I0
sg14
g5
sg15
g5
sg16
g5
sg17
g5
sg18
I12961
sg19
I0
sg20
g5
sg21
I0
sg22
I350000
sg23
I0
sg24
I6678735
sg25
g5
sg26
g5
sg27
I1788391
sg28
I170941
sg29
I211725
sg30
I4890344
ssS'CORDES WILLIAM R'
p36
(dp37
g3
I764
sg4
g5
sg6
g5
sg7
I0
sg8
I00
sg9
g5
sg10
S'bill.cordes@enron.com'
p38
sg12
g5
sg13
I0
sg14
g5
sg15
I58
sg16
g5
sg17
I12
sg18
g5
sg19
I0
sg20
g5
sg21
I0
sg22
g5
sg23
I0
sg24
I1038185
sg25
I10
sg26
I0
sg27
I386335
sg28
g5
sg29
g5
sg30
I651850
ssS'HANNON KEVIN P'
p39
(dp40
g3
I1045
sg4
g5
sg6
I34039
sg7
I0
sg8
I01
sg9
I1617011
sg10
S'kevin.hannon@enron.com'
p41
sg12
I-3117011
sg13
I1
sg14
g5
sg15
I1035
sg16
g5
sg17
I32
sg18
I11350
sg19
I0
sg20
g5
sg21
I0
sg22
I1500000
sg23
I0
sg24
I6391065
sg25
I32
sg26
I21
sg27
I853064
sg28
I243293
sg29
I288682
sg30
I5538001
ssS'MORDAUNT KRISTINA M'
p42
(dp43
g3
g5
sg4
g5
sg6
I35018
sg7
I0
sg8
I00
sg9
g5
sg10
S'kristina.mordaunt@enron.com'
p44
sg12
g5
sg13
I0
sg14
g5
sg15
g5
sg16
g5
sg17
g5
sg18
I1411
sg19
I0
sg20
g5
sg21
I0
sg22
I325000
sg23
I0
sg24
I208510
sg25
g5
sg26
g5
sg27
I208510
sg28
I267093
sg29
I628522
sg30
g5
ssS'MEYER ROCKFORD G'
p45
(dp46
g3
I232
sg4
I1848227
sg6
g5
sg7
I0
sg8
I00
sg9
g5
sg10
S'rockford.meyer@enron.com'
p47
sg12
g5
sg13
I0
sg14
g5
sg15
I22
sg16
g5
sg17
I28
sg18
g5
sg19
I0
sg20
g5
sg21
I0
sg22
g5
sg23
I2
sg24
I955873
sg25
I0
sg26
I0
sg27
I462384
sg28
g5
sg29
I1848227
sg30
I493489
ssS'MCMAHON JEFFREY'
p48
(dp49
g3
I2355
sg4
g5
sg6
I137108
sg7
I0
sg8
I00
sg9
I694862
sg10
S'jeffrey.mcmahon@enron.com'
p50
sg12
g5
sg13
I0
sg14
g5
sg15
I2228
sg16
g5
sg17
I48
sg18
I297353
sg19
I0
sg20
g5
sg21
I0
sg22
I2600000
sg23
I0
sg24
I1662855
sg25
I58
sg26
I26
sg27
I558801
sg28
I370448
sg29
I4099771
sg30
I1104054
ssS'HORTON STANLEY C'
p51
(dp52
g3
I2350
sg4
I3131860
sg6
g5
sg7
I0
sg8
I00
sg9
g5
sg10
S'stanley.horton@enron.com'
p53
sg12
g5
sg13
I0
sg14
g5
sg15
I1074
sg16
g5
sg17
I1073
sg18
g5
sg19
I0
sg20
g5
sg21
I0
sg22
g5
sg23
I0
sg24
I7256648
sg25
I44
sg26
I15
sg27
I2046079
sg28
g5
sg29
I3131860
sg30
I5210569
ssS'PIPER GREGORY F'
p54
(dp55
g3
I1238
sg4
I1130036
sg6
I43057
sg7
I0
sg8
I00
sg9
g5
sg10
S'greg.piper@enron.com'
p56
sg12
I-33333
sg13
I0
sg14
I-409554
sg15
I742
sg16
g5
sg17
I222
sg18
I778
sg19
I0
sg20
g5
sg21
I0
sg22
I400000
sg23
I0
sg24
I880290
sg25
I61
sg26
I48
sg27
I409554
sg28
I197091
sg29
I1737629
sg30
I880290
ssS'HUMPHREY GENE E'
p57
(dp58
g3
I128
sg4
I2964506
sg6
I4994
sg7
I0
sg8
I00
sg9
g5
sg10
S'gene.humphrey@enron.com'
p59
sg12
g5
sg13
I0
sg14
g5
sg15
I119
sg16
g5
sg17
I17
sg18
g5
sg19
I0
sg20
g5
sg21
I0
sg22
g5
sg23
I0
sg24
I2282768
sg25
I10
sg26
I17
sg27
g5
sg28
I130724
sg29
I3100224
sg30
I2282768
ssS'UMANOFF ADAM S'
p60
(dp61
g3
I111
sg4
g5
sg6
I53122
sg7
I0
sg8
I00
sg9
g5
sg10
S'adam.umanoff@enron.com'
p62
sg12
g5
sg13
I0
sg14
g5
sg15
I41
sg16
g5
sg17
I18
sg18
g5
sg19
I0
sg20
g5
sg21
I0
sg22
I788750
sg23
I0
sg24
g5
sg25
I12
sg26
I0
sg27
g5
sg28
I288589
sg29
I1130461
sg30
g5
ssS'BLACHMAN JEREMY M'
p63
(dp64
g3
I2475
sg4
g5
sg6
I84208
sg7
I0
sg8
I00
sg9
I831809
sg10
S'jeremy.blachman@enron.com'
p65
sg12
g5
sg13
I0
sg14
g5
sg15
I2326
sg16
g5
sg17
I14
sg18
I272
sg19
I0
sg20
g5
sg21
I2
sg22
I850000
sg23
I0
sg24
I954354
sg25
I25
sg26
I2
sg27
I189041
sg28
I248546
sg29
I2014835
sg30
I765313
ssS'SUNDE MARTIN'
p66
(dp67
g3
I2647
sg4
g5
sg6
g5
sg7
I0
sg8
I00
sg9
I476451
sg10
S'marty.sunde@enron.com'
p68
sg12
g5
sg13
I0
sg14
g5
sg15
I2565
sg16
g5
sg17
I38
sg18
I111122
sg19
I0
sg20
g5
sg21
I2
sg22
I700000
sg23
I0
sg24
I698920
sg25
I37
sg26
I13
sg27
I698920
sg28
I257486
sg29
I1545059
sg30
g5
ssS'GIBBS DANA R'
p69
(dp70
g3
I169
sg4
I504610
sg6
g5
sg7
I0
sg8
I00
sg9
I461912
sg10
S'dana.gibbs@enron.com'
p71
sg12
g5
sg13
I0
sg14
g5
sg15
I23
sg16
g5
sg17
I12
sg18
g5
sg19
I0
sg20
g5
sg21
I0
sg22
g5
sg23
I0
sg24
I2218275
sg25
I0
sg26
I0
sg27
g5
sg28
g5
sg29
I966522
sg30
I2218275
ssS'LOWRY CHARLES P'
p72
(dp73
g3
g5
sg4
g5
sg6
g5
sg7
I0
sg8
I00
sg9
g5
sg10
g5
sg12
g5
sg13
I0
sg14
I-153686
sg15
g5
sg16
g5
sg17
g5
sg18
g5
sg19
I0
sg20
g5
sg21
I0
sg22
g5
sg23
I0
sg24
I372205
sg25
g5
sg26
g5
sg27
I153686
sg28
g5
sg29
g5
sg30
I372205
ssS'COLWELL WESLEY'
p74
(dp75
g3
I1758
sg4
I27610
sg6
I16514
sg7
I0
sg8
I01
sg9
g5
sg10
S'wes.colwell@enron.com'
p76
sg12
I-144062
sg13
I0
sg14
g5
sg15
I1132
sg16
g5
sg17
I40
sg18
I101740
sg19
I0
sg20
g5
sg21
I0
sg22
I1200000
sg23
I1
sg24
I698242
sg25
I240
sg26
I11
sg27
I698242
sg28
I288542
sg29
I1490344
sg30
g5
ssS'MULLER MARK S'
p77
(dp78
g3
I136
sg4
I842924
sg6
g5
sg7
I0
sg8
I00
sg9
I1725545
sg10
S's..muller@enron.com'
p79
sg12
I-719000
sg13
I0
sg14
g5
sg15
I114
sg16
g5
sg17
I16
sg18
I947
sg19
I0
sg20
g5
sg21
I0
sg22
I1100000
sg23
I0
sg24
I1416848
sg25
I12
sg26
I0
sg27
I360528
sg28
I251654
sg29
I3202070
sg30
I1056320
ssS'JACKSON CHARLENE R'
p80
(dp81
g3
I258
sg4
g5
sg6
I10181
sg7
I1
sg8
I00
sg9
g5
sg10
S'charlene.jackson@enron.com'
p82
sg12
g5
sg13
I0
sg14
g5
sg15
I117
sg16
g5
sg17
I56
sg18
I2435
sg19
I0
sg20
g5
sg21
I0
sg22
I250000
sg23
I0
sg24
I725735
sg25
I25
sg26
I19
sg27
I540672
sg28
I288558
sg29
I551174
sg30
I185063
ssS'WESTFAHL RICHARD K'
p83
(dp84
g3
g5
sg4
g5
sg6
I51870
sg7
I0
sg8
I00
sg9
I256191
sg10
S'dick.westfahl@enron.com'
p85
sg12
I-10800
sg13
I0
sg14
g5
sg15
g5
sg16
g5
sg17
g5
sg18
I401130
sg19
I0
sg20
g5
sg21
I0
sg22
g5
sg23
I0
sg24
I384930
sg25
g5
sg26
g5
sg27
I384930
sg28
I63744
sg29
I762135
sg30
g5
ssS'WALTERS GARETH W'
p86
(dp87
g3
g5
sg4
I53625
sg6
I33785
sg7
I0
sg8
I00
sg9
g5
sg10
g5
sg12
g5
sg13
I0
sg14
g5
sg15
g5
sg16
g5
sg17
g5
sg18
g5
sg19
I0
sg20
g5
sg21
I0
sg22
g5
sg23
I0
sg24
I1030329
sg25
g5
sg26
g5
sg27
g5
sg28
g5
sg29
I87410
sg30
I1030329
ssS'WALLS JR ROBERT H'
p88
(dp89
g3
I671
sg4
g5
sg6
I50936
sg7
I0
sg8
I00
sg9
I540751
sg10
S'rob.walls@enron.com'
p90
sg12
g5
sg13
I0
sg14
g5
sg15
I215
sg16
g5
sg17
I146
sg18
I2
sg19
I0
sg20
g5
sg21
I0
sg22
I850000
sg23
I0
sg24
I5898997
sg25
I17
sg26
I0
sg27
I1552453
sg28
I357091
sg29
I1798780
sg30
I4346544
ssS'KITCHEN LOUISE'
p91
(dp92
g3
I8305
sg4
g5
sg6
I5774
sg7
I0
sg8
I00
sg9
g5
sg10
S'louise.kitchen@enron.com'
p93
sg12
g5
sg13
I0
sg14
g5
sg15
I3669
sg16
g5
sg17
I1728
sg18
I93925
sg19
I0
sg20
g5
sg21
I0
sg22
I3100000
sg23
I0
sg24
I547143
sg25
I251
sg26
I194
sg27
I466101
sg28
I271442
sg29
I3471141
sg30
I81042
ssS'CHAN RONNIE'
p94
(dp95
g3
g5
sg4
g5
sg6
g5
sg7
I0
sg8
I00
sg9
g5
sg10
g5
sg12
I-98784
sg13
I0
sg14
I-32460
sg15
g5
sg16
g5
sg17
g5
sg18
g5
sg19
I0
sg20
I98784
sg21
I0
sg22
g5
sg23
I0
sg24
g5
sg25
g5
sg26
g5
sg27
I32460
sg28
g5
sg29
g5
sg30
g5
ssS'BELFER ROBERT'
p96
(dp97
g3
g5
sg4
I-102500
sg6
g5
sg7
I0
sg8
I00
sg9
g5
sg10
g5
sg12
g5
sg13
I0
sg14
I44093
sg15
g5
sg16
g5
sg17
g5
sg18
g5
sg19
I0
sg20
I3285
sg21
I0
sg22
g5
sg23
I0
sg24
I-44093
sg25
g5
sg26
g5
sg27
g5
sg28
g5
sg29
I102500
sg30
I3285
ssS'SHANKMAN JEFFREY A'
p98
(dp99
g3
I3221
sg4
g5
sg6
I178979
sg7
I0
sg8
I00
sg9
I554422
sg10
S'jeffrey.shankman@enron.com'
p100
sg12
g5
sg13
I0
sg14
g5
sg15
I1730
sg16
g5
sg17
I2681
sg18
I1191
sg19
I1
sg20
g5
sg21
I0
sg22
I2000000
sg23
I0
sg24
I2072035
sg25
I94
sg26
I83
sg27
I630137
sg28
I304110
sg29
I3038702
sg30
I1441898
ssS'WODRASKA JOHN'
p101
(dp102
g3
g5
sg4
g5
sg6
g5
sg7
I0
sg8
I00
sg9
g5
sg10
S'john.wodraska@enron.com'
p103
sg12
g5
sg13
I0
sg14
g5
sg15
g5
sg16
g5
sg17
g5
sg18
I189583
sg19
I0
sg20
g5
sg21
I0
sg22
g5
sg23
I0
sg24
g5
sg25
g5
sg26
g5
sg27
g5
sg28
g5
sg29
I189583
sg30
g5
ssS'BERGSIEKER RICHARD P'
p104
(dp105
g3
I383
sg4
g5
sg6
I59175
sg7
I0
sg8
I00
sg9
I180250
sg10
S'rick.bergsieker@enron.com'
p106
sg12
I-485813
sg13
I0
sg14
g5
sg15
I233
sg16
g5
sg17
I59
sg18
I427316
sg19
I0
sg20
g5
sg21
I0
sg22
I250000
sg23
I0
sg24
I659249
sg25
I4
sg26
I0
sg27
I659249
sg28
I187922
sg29
I618850
sg30
g5
ssS'URQUHART JOHN A'
p107
(dp108
g3
g5
sg4
g5
sg6
I228656
sg7
I0
sg8
I00
sg9
g5
sg10
g5
sg12
I-36666
sg13
I0
sg14
g5
sg15
g5
sg16
g5
sg17
g5
sg18
g5
sg19
I0
sg20
I36666
sg21
I0
sg22
g5
sg23
I0
sg24
g5
sg25
g5
sg26
g5
sg27
g5
sg28
g5
sg29
I228656
sg30
g5
ssS'BIBI PHILIPPE A'
p109
(dp110
g3
I1607
sg4
g5
sg6
I38559
sg7
I0
sg8
I00
sg9
I369721
sg10
S'philippe.bibi@enron.com'
p111
sg12
g5
sg13
I0
sg14
g5
sg15
I1336
sg16
g5
sg17
I40
sg18
I425688
sg19
I0
sg20
g5
sg21
I0
sg22
I1000000
sg23
I0
sg24
I1843816
sg25
I23
sg26
I8
sg27
I378082
sg28
I213625
sg29
I2047593
sg30
I1465734
ssS'RIEKER PAULA H'
p112
(dp113
g3
I1328
sg4
I214678
sg6
I33271
sg7
I0
sg8
I01
sg9
g5
sg10
S'paula.rieker@enron.com'
p114
sg12
I-100000
sg13
I0
sg14
g5
sg15
I1258
sg16
g5
sg17
I82
sg18
I1950
sg19
I0
sg20
g5
sg21
I3
sg22
I700000
sg23
I0
sg24
I1918887
sg25
I35
sg26
I48
sg27
I283649
sg28
I249201
sg29
I1099100
sg30
I1635238
ssS'WHALEY DAVID A'
p115
(dp116
g3
g5
sg4
g5
sg6
g5
sg7
I0
sg8
I00
sg9
g5
sg10
g5
sg12
g5
sg13
I0
sg14
g5
sg15
g5
sg16
g5
sg17
g5
sg18
g5
sg19
I0
sg20
g5
sg21
I0
sg22
g5
sg23
I0
sg24
I98718
sg25
g5
sg26
g5
sg27
g5
sg28
g5
sg29
g5
sg30
I98718
ssS'BECK SALLY W'
p117
(dp118
g3
I7315
sg4
g5
sg6
I37172
sg7
I0
sg8
I00
sg9
g5
sg10
S'sally.beck@enron.com'
p119
sg12
g5
sg13
I0
sg14
g5
sg15
I2639
sg16
g5
sg17
I4343
sg18
I566
sg19
I0
sg20
g5
sg21
I0
sg22
I700000
sg23
I1
sg24
I126027
sg25
I144
sg26
I386
sg27
I126027
sg28
I231330
sg29
I969068
sg30
g5
ssS'HAUG DAVID L'
p120
(dp121
g3
I573
sg4
g5
sg6
I475
sg7
I2
sg8
I00
sg9
g5
sg10
S'david.haug@enron.com'
p122
sg12
g5
sg13
I0
sg14
g5
sg15
I471
sg16
g5
sg17
I19
sg18
g5
sg19
I0
sg20
g5
sg21
I0
sg22
g5
sg23
I0
sg24
I2217299
sg25
I4
sg26
I7
sg27
I2217299
sg28
g5
sg29
I475
sg30
g5
ssS'ECHOLS JOHN B'
p123
(dp124
g3
g5
sg4
g5
sg6
I21530
sg7
I0
sg8
I00
sg9
I2234774
sg10
S'john.echols@enron.com'
p125
sg12
g5
sg13
I0
sg14
g5
sg15
g5
sg16
g5
sg17
g5
sg18
I53775
sg19
I0
sg20
g5
sg21
I0
sg22
I200000
sg23
I0
sg24
I1008941
sg25
g5
sg26
g5
sg27
I407503
sg28
I182245
sg29
I2692324
sg30
I601438
ssS'MENDELSOHN JOHN'
p126
(dp127
g3
g5
sg4
g5
sg6
I148
sg7
I0
sg8
I00
sg9
g5
sg10
g5
sg12
I-103750
sg13
I0
sg14
g5
sg15
g5
sg16
g5
sg17
g5
sg18
g5
sg19
I0
sg20
I103750
sg21
I0
sg22
g5
sg23
I0
sg24
g5
sg25
g5
sg26
g5
sg27
g5
sg28
g5
sg29
I148
sg30
g5
ssS'HICKERSON GARY J'
p128
(dp129
g3
I1320
sg4
g5
sg6
I98849
sg7
I0
sg8
I00
sg9
I69223
sg10
S'gary.hickerson@enron.com'
p130
sg12
g5
sg13
I0
sg14
g5
sg15
I900
sg16
g5
sg17
I27
sg18
I1936
sg19
I0
sg20
g5
sg21
I0
sg22
I1700000
sg23
I0
sg24
I441096
sg25
I40
sg26
I1
sg27
I441096
sg28
I211788
sg29
I2081796
sg30
g5
ssS'CLINE KENNETH W'
p131
(dp132
g3
g5
sg4
g5
sg6
g5
sg7
I0
sg8
I00
sg9
g5
sg10
g5
sg12
g5
sg13
I0
sg14
I-472568
sg15
g5
sg16
g5
sg17
g5
sg18
g5
sg19
I0
sg20
g5
sg21
I0
sg22
g5
sg23
I0
sg24
I189518
sg25
g5
sg26
g5
sg27
I662086
sg28
g5
sg29
g5
sg30
g5
ssS'LEWIS RICHARD'
p133
(dp134
g3
I952
sg4
g5
sg6
g5
sg7
I0
sg8
I00
sg9
g5
sg10
S'richard.lewis@enron.com'
p135
sg12
g5
sg13
I0
sg14
g5
sg15
I739
sg16
g5
sg17
I26
sg18
g5
sg19
I0
sg20
g5
sg21
I0
sg22
g5
sg23
I0
sg24
I850477
sg25
I10
sg26
I0
sg27
g5
sg28
g5
sg29
g5
sg30
I850477
ssS'HAYES ROBERT E'
p136
(dp137
g3
I504
sg4
I7961
sg6
g5
sg7
I0
sg8
I00
sg9
g5
sg10
S'robert.hayes@enron.com'
p138
sg12
g5
sg13
I0
sg14
g5
sg15
I50
sg16
g5
sg17
I12
sg18
g5
sg19
I0
sg20
g5
sg21
I0
sg22
g5
sg23
I0
sg24
I151418
sg25
I16
sg26
I0
sg27
I151418
sg28
g5
sg29
I7961
sg30
g5
ssS'MCCARTY DANNY J'
p139
(dp140
g3
I1433
sg4
g5
sg6
g5
sg7
I0
sg8
I00
sg9
g5
sg10
S'danny.mccarty@enron.com'
p141
sg12
g5
sg13
I0
sg14
g5
sg15
I508
sg16
g5
sg17
I215
sg18
g5
sg19
I0
sg20
g5
sg21
I0
sg22
g5
sg23
I0
sg24
I758931
sg25
I25
sg26
I2
sg27
I94556
sg28
g5
sg29
g5
sg30
I664375
ssS'KOPPER MICHAEL J'
p142
(dp143
g3
g5
sg4
g5
sg6
I118134
sg7
I0
sg8
I01
sg9
I602671
sg10
S'michael.kopper@enron.com'
p144
sg12
g5
sg13
I0
sg14
g5
sg15
g5
sg16
g5
sg17
g5
sg18
I907502
sg19
I0
sg20
g5
sg21
I0
sg22
I800000
sg23
I0
sg24
I985032
sg25
g5
sg26
g5
sg27
I985032
sg28
I224305
sg29
I2652612
sg30
g5
ssS'LEFF DANIEL P'
p145
(dp146
g3
I2822
sg4
g5
sg6
g5
sg7
I0
sg8
I00
sg9
I1387399
sg10
S'dan.leff@enron.com'
p147
sg12
g5
sg13
I0
sg14
g5
sg15
I2672
sg16
g5
sg17
I63
sg18
I3083
sg19
I0
sg20
g5
sg21
I2
sg22
I1000000
sg23
I0
sg24
I360528
sg25
I67
sg26
I14
sg27
I360528
sg28
I273746
sg29
I2664228
sg30
g5
ssS'LAVORATO JOHN J'
p148
(dp149
g3
I7259
sg4
g5
sg6
I49537
sg7
I0
sg8
I00
sg9
I2035380
sg10
S'john.lavorato@enron.com'
p150
sg12
g5
sg13
I0
sg14
g5
sg15
I3962
sg16
g5
sg17
I2585
sg18
I1552
sg19
I0
sg20
g5
sg21
I0
sg22
I8000000
sg23
I0
sg24
I5167144
sg25
I528
sg26
I411
sg27
I1008149
sg28
I339288
sg29
I10425757
sg30
I4158995
ssS'BERBERIAN DAVID'
p151
(dp152
g3
g5
sg4
g5
sg6
I11892
sg7
I0
sg8
I00
sg9
g5
sg10
S'david.berberian@enron.com'
p153
sg12
g5
sg13
I0
sg14
g5
sg15
g5
sg16
g5
sg17
g5
sg18
g5
sg19
I0
sg20
g5
sg21
I0
sg22
g5
sg23
I0
sg24
I2493616
sg25
g5
sg26
g5
sg27
I869220
sg28
I216582
sg29
I228474
sg30
I1624396
ssS'DETMERING TIMOTHY J'
p154
(dp155
g3
g5
sg4
I875307
sg6
I52255
sg7
I0
sg8
I00
sg9
I415657
sg10
S'timothy.detmering@enron.com'
p156
sg12
I-775241
sg13
I0
sg14
I-315068
sg15
g5
sg16
g5
sg17
g5
sg18
I1105
sg19
I0
sg20
g5
sg21
I0
sg22
I425000
sg23
I0
sg24
I2027865
sg25
g5
sg26
g5
sg27
I315068
sg28
I210500
sg29
I1204583
sg30
I2027865
ssS'WAKEHAM JOHN'
p157
(dp158
g3
g5
sg4
g5
sg6
I103773
sg7
I0
sg8
I00
sg9
g5
sg10
g5
sg12
g5
sg13
I0
sg14
g5
sg15
g5
sg16
g5
sg17
g5
sg18
g5
sg19
I0
sg20
I109298
sg21
I0
sg22
g5
sg23
I0
sg24
g5
sg25
g5
sg26
g5
sg27
g5
sg28
g5
sg29
I213071
sg30
g5
ssS'POWERS WILLIAM'
p159
(dp160
g3
I653
sg4
g5
sg6
g5
sg7
I0
sg8
I00
sg9
g5
sg10
S'ken.powers@enron.com'
p161
sg12
I-17500
sg13
I0
sg14
g5
sg15
I12
sg16
g5
sg17
I26
sg18
g5
sg19
I0
sg20
I17500
sg21
I0
sg22
g5
sg23
I0
sg24
g5
sg25
I0
sg26
I0
sg27
g5
sg28
g5
sg29
g5
sg30
g5
ssS'GOLD JOSEPH'
p162
(dp163
g3
g5
sg4
g5
sg6
g5
sg7
I0
sg8
I00
sg9
I304805
sg10
S'joe.gold@enron.com'
p164
sg12
g5
sg13
I0
sg14
g5
sg15
g5
sg16
g5
sg17
g5
sg18
I819288
sg19
I0
sg20
g5
sg21
I0
sg22
I750000
sg23
I0
sg24
I877611
sg25
g5
sg26
g5
sg27
I441096
sg28
I272880
sg29
I2146973
sg30
I436515
ssS'BANNANTINE JAMES M'
p165
(dp166
g3
I566
sg4
g5
sg6
I56301
sg7
I2
sg8
I00
sg9
g5
sg10
S'james.bannantine@enron.com'
p167
sg12
I-5104
sg13
I0
sg14
I-560222
sg15
I465
sg16
g5
sg17
I29
sg18
I864523
sg19
I0
sg20
g5
sg21
I0
sg22
g5
sg23
I0
sg24
I5243487
sg25
I39
sg26
I0
sg27
I1757552
sg28
I477
sg29
I916197
sg30
I4046157
ssS'DUNCAN JOHN H'
p168
(dp169
g3
g5
sg4
g5
sg6
g5
sg7
I0
sg8
I00
sg9
g5
sg10
g5
sg12
I-25000
sg13
I0
sg14
g5
sg15
g5
sg16
g5
sg17
g5
sg18
g5
sg19
I0
sg20
I102492
sg21
I0
sg22
g5
sg23
I0
sg24
I371750
sg25
g5
sg26
g5
sg27
g5
sg28
g5
sg29
I77492
sg30
I371750
ssS'SHAPIRO RICHARD S'
p170
(dp171
g3
I15149
sg4
g5
sg6
I137767
sg7
I0
sg8
I00
sg9
g5
sg10
S'richard.shapiro@enron.com'
p172
sg12
g5
sg13
I0
sg14
g5
sg15
I4527
sg16
g5
sg17
I1215
sg18
I705
sg19
I0
sg20
g5
sg21
I0
sg22
I650000
sg23
I0
sg24
I987001
sg25
I74
sg26
I65
sg27
I379164
sg28
I269076
sg29
I1057548
sg30
I607837
ssS'SHERRIFF JOHN R'
p173
(dp174
g3
I3187
sg4
g5
sg6
g5
sg7
I0
sg8
I00
sg9
I554422
sg10
S'john.sherriff@enron.com'
p175
sg12
g5
sg13
I0
sg14
g5
sg15
I2103
sg16
g5
sg17
I92
sg18
I1852186
sg19
I0
sg20
g5
sg21
I0
sg22
I1500000
sg23
I0
sg24
I3128982
sg25
I28
sg26
I23
sg27
I1293424
sg28
I428780
sg29
I4335388
sg30
I1835558
ssS'SHELBY REX'
p176
(dp177
g3
I225
sg4
g5
sg6
I22884
sg7
I0
sg8
I01
sg9
g5
sg10
S'rex.shelby@enron.com'
p178
sg12
I-4167
sg13
I1
sg14
g5
sg15
I91
sg16
g5
sg17
I39
sg18
I1573324
sg19
I0
sg20
g5
sg21
I0
sg22
I200000
sg23
I0
sg24
I2493616
sg25
I13
sg26
I14
sg27
I869220
sg28
I211844
sg29
I2003885
sg30
I1624396
ssS'LEMAISTRE CHARLES'
p179
(dp180
g3
g5
sg4
g5
sg6
g5
sg7
I0
sg8
I00
sg9
g5
sg10
g5
sg12
I-25000
sg13
I0
sg14
g5
sg15
g5
sg16
g5
sg17
g5
sg18
g5
sg19
I0
sg20
I112492
sg21
I0
sg22
g5
sg23
I0
sg24
I412878
sg25
g5
sg26
g5
sg27
g5
sg28
g5
sg29
I87492
sg30
I412878
ssS'DEFFNER JOSEPH M'
p181
(dp182
g3
I714
sg4
g5
sg6
I41626
sg7
I0
sg8
I00
sg9
I335349
sg10
S'joseph.deffner@enron.com'
p183
sg12
g5
sg13
I0
sg14
g5
sg15
I552
sg16
g5
sg17
I74
sg18
I25553
sg19
I0
sg20
g5
sg21
I0
sg22
I600000
sg23
I0
sg24
I159211
sg25
I115
sg26
I4
sg27
I141833
sg28
I206121
sg29
I1208649
sg30
I17378
ssS'KISHKILL JOSEPH G'
p184
(dp185
g3
g5
sg4
g5
sg6
I116335
sg7
I0
sg8
I00
sg9
g5
sg10
S'joe.kishkill@enron.com'
p186
sg12
I-51042
sg13
I0
sg14
g5
sg15
g5
sg16
g5
sg17
g5
sg18
I465357
sg19
I0
sg20
g5
sg21
I0
sg22
g5
sg23
I0
sg24
I1034346
sg25
g5
sg26
g5
sg27
I1034346
sg28
I174246
sg29
I704896
sg30
g5
ssS'WHALLEY LAWRENCE G'
p187
(dp188
g3
I6019
sg4
g5
sg6
I57838
sg7
I0
sg8
I00
sg9
I808346
sg10
S'greg.whalley@enron.com'
p189
sg12
g5
sg13
I0
sg14
g5
sg15
I3920
sg16
g5
sg17
I556
sg18
I301026
sg19
I1
sg20
g5
sg21
I0
sg22
I3000000
sg23
I0
sg24
I6079137
sg25
I186
sg26
I24
sg27
I2796177
sg28
I510364
sg29
I4677574
sg30
I3282960
ssS'PIRO JIM'
p190
(dp191
g3
I58
sg4
g5
sg6
g5
sg7
I0
sg8
I00
sg9
g5
sg10
S'jim.piro@enron.com'
p192
sg12
g5
sg13
I0
sg14
g5
sg15
I3
sg16
g5
sg17
I16
sg18
g5
sg19
I0
sg20
g5
sg21
I0
sg22
g5
sg23
I0
sg24
I47304
sg25
I0
sg26
I1
sg27
I47304
sg28
g5
sg29
g5
sg30
g5
ssS'MCCONNELL MICHAEL S'
p193
(dp194
g3
I3329
sg4
g5
sg6
I81364
sg7
I0
sg8
I00
sg9
I554422
sg10
S'mike.mcconnell@enron.com'
p195
sg12
g5
sg13
I0
sg14
g5
sg15
I2189
sg16
g5
sg17
I2742
sg18
I540
sg19
I1
sg20
g5
sg21
I0
sg22
I1100000
sg23
I0
sg24
I3101279
sg25
I92
sg26
I194
sg27
I1478269
sg28
I365038
sg29
I2101364
sg30
I1623010
ssS'DELAINEY DAVID W'
p196
(dp197
g3
I3093
sg4
g5
sg6
I86174
sg7
I0
sg8
I01
sg9
I1294981
sg10
S'david.delainey@enron.com'
p198
sg12
g5
sg13
I0
sg14
g5
sg15
I2097
sg16
g5
sg17
I3069
sg18
I1661
sg19
I0
sg20
g5
sg21
I0
sg22
I3000000
sg23
I0
sg24
I3614261
sg25
I66
sg26
I609
sg27
I1323148
sg28
I365163
sg29
I4747979
sg30
I2291113
ssS'SULLIVAN-SHAKLOVITZ COLLEEN'
p199
(dp200
g3
g5
sg4
I181993
sg6
g5
sg7
I0
sg8
I00
sg9
I554422
sg10
g5
sg12
g5
sg13
I0
sg14
g5
sg15
g5
sg16
g5
sg17
g5
sg18
I162
sg19
I0
sg20
g5
sg21
I0
sg22
I100000
sg23
I0
sg24
I1362375
sg25
g5
sg26
g5
sg27
g5
sg28
I162779
sg29
I999356
sg30
I1362375
ssS'WROBEL BRUCE'
p201
(dp202
g3
g5
sg4
g5
sg6
g5
sg7
I0
sg8
I00
sg9
g5
sg10
g5
sg12
g5
sg13
I0
sg14
g5
sg15
g5
sg16
g5
sg17
g5
sg18
g5
sg19
I0
sg20
g5
sg21
I0
sg22
g5
sg23
I0
sg24
I139130
sg25
g5
sg26
g5
sg27
g5
sg28
g5
sg29
g5
sg30
I139130
ssS'LINDHOLM TOD A'
p203
(dp204
g3
g5
sg4
I204075
sg6
I57727
sg7
I0
sg8
I00
sg9
I175000
sg10
S'tod.lindholm@enron.com'
p205
sg12
g5
sg13
I0
sg14
g5
sg15
g5
sg16
g5
sg17
g5
sg18
I2630
sg19
I0
sg20
g5
sg21
I0
sg22
I200000
sg23
I0
sg24
I3064208
sg25
g5
sg26
g5
sg27
I514847
sg28
I236457
sg29
I875889
sg30
I2549361
ssS'MEYER JEROME J'
p206
(dp207
g3
g5
sg4
g5
sg6
I2151
sg7
I0
sg8
I00
sg9
g5
sg10
g5
sg12
I-38346
sg13
I0
sg14
g5
sg15
g5
sg16
g5
sg17
g5
sg18
g5
sg19
I0
sg20
I38346
sg21
I0
sg22
g5
sg23
I0
sg24
g5
sg25
g5
sg26
g5
sg27
g5
sg28
g5
sg29
I2151
sg30
g5
ssS'LAY KENNETH L'
p208
(dp209
g3
I4273
sg4
I202911
sg6
I99832
sg7
I0
sg8
I01
sg9
I3600000
sg10
S'kenneth.lay@enron.com'
p210
sg12
I-300000
sg13
I0
sg14
g5
sg15
I2411
sg16
I81525000
sg17
I36
sg18
I10359729
sg19
I1
sg20
g5
sg21
I0
sg22
I7000000
sg23
I0
sg24
I49110078
sg25
I123
sg26
I16
sg27
I14761694
sg28
I1072321
sg29
I103559793
sg30
I34348384
ssS'BUTTS ROBERT H'
p211
(dp212
g3
g5
sg4
g5
sg6
I9410
sg7
I0
sg8
I00
sg9
I175000
sg10
S'bob.butts@enron.com'
p213
sg12
I-75000
sg13
I0
sg14
g5
sg15
g5
sg16
g5
sg17
g5
sg18
I150656
sg19
I0
sg20
g5
sg21
I0
sg22
I750000
sg23
I0
sg24
I417619
sg25
g5
sg26
g5
sg27
I417619
sg28
I261516
sg29
I1271582
sg30
g5
ssS'OLSON CINDY K'
p214
(dp215
g3
I1184
sg4
I77716
sg6
I63791
sg7
I0
sg8
I00
sg9
I100000
sg10
S'cindy.olson@enron.com'
p216
sg12
g5
sg13
I0
sg14
g5
sg15
I856
sg16
g5
sg17
I52
sg18
I972
sg19
I0
sg20
g5
sg21
I0
sg22
I750000
sg23
I0
sg24
I2606763
sg25
I20
sg26
I15
sg27
I969729
sg28
I329078
sg29
I1321557
sg30
I1637034
ssS'MCDONALD REBECCA'
p217
(dp218
g3
I894
sg4
g5
sg6
g5
sg7
I0
sg8
I00
sg9
g5
sg10
S'rebecca.mcdonald@enron.com'
p219
sg12
g5
sg13
I0
sg14
g5
sg15
I720
sg16
g5
sg17
I13
sg18
g5
sg19
I0
sg20
g5
sg21
I1
sg22
g5
sg23
I0
sg24
I1691366
sg25
I54
sg26
I1
sg27
I934065
sg28
g5
sg29
g5
sg30
I757301
ssS'CUMBERLAND MICHAEL S'
p220
(dp221
g3
g5
sg4
g5
sg6
I22344
sg7
I0
sg8
I00
sg9
I275000
sg10
g5
sg12
g5
sg13
I0
sg14
g5
sg15
g5
sg16
g5
sg17
g5
sg18
I713
sg19
I0
sg20
g5
sg21
I0
sg22
I325000
sg23
I0
sg24
I207940
sg25
g5
sg26
g5
sg27
I207940
sg28
I184899
sg29
I807956
sg30
g5
ssS'GAHN ROBERT S'
p222
(dp223
g3
g5
sg4
I73122
sg6
I50080
sg7
I0
sg8
I00
sg9
g5
sg10
g5
sg12
I-1042
sg13
I0
sg14
g5
sg15
g5
sg16
g5
sg17
g5
sg18
I76547
sg19
I0
sg20
g5
sg21
I0
sg22
I509870
sg23
I0
sg24
I318607
sg25
g5
sg26
g5
sg27
I235370
sg28
I192008
sg29
I900585
sg30
I83237
ssS'MCCLELLAN GEORGE'
p224
(dp225
g3
I1744
sg4
g5
sg6
I228763
sg7
I0
sg8
I00
sg9
g5
sg10
S'george.mcclellan@enron.com'
p226
sg12
I-125000
sg13
I0
sg14
g5
sg15
I1469
sg16
g5
sg17
I49
sg18
I51587
sg19
I0
sg20
g5
sg21
I0
sg22
I900000
sg23
I0
sg24
I947861
sg25
I52
sg26
I0
sg27
I441096
sg28
I263413
sg29
I1318763
sg30
I506765
ssS'HERMANN ROBERT J'
p227
(dp228
g3
g5
sg4
g5
sg6
I48357
sg7
I0
sg8
I00
sg9
I150000
sg10
S'robert.hermann@enron.com'
p229
sg12
I-280000
sg13
I0
sg14
g5
sg15
g5
sg16
g5
sg17
g5
sg18
I416441
sg19
I0
sg20
g5
sg21
I0
sg22
I700000
sg23
I0
sg24
I668132
sg25
g5
sg26
g5
sg27
I480632
sg28
I262663
sg29
I1297461
sg30
I187500
ssS'SCRIMSHAW MATTHEW'
p230
(dp231
g3
g5
sg4
g5
sg6
g5
sg7
I0
sg8
I00
sg9
g5
sg10
S'matthew.scrimshaw@enron.com'
p232
sg12
g5
sg13
I0
sg14
g5
sg15
g5
sg16
g5
sg17
g5
sg18
g5
sg19
I0
sg20
g5
sg21
I0
sg22
g5
sg23
I0
sg24
I759557
sg25
g5
sg26
g5
sg27
g5
sg28
g5
sg29
g5
sg30
I759557
ssS'GATHMANN WILLIAM D'
p233
(dp234
g3
g5
sg4
g5
sg6
g5
sg7
I0
sg8
I00
sg9
g5
sg10
g5
sg12
g5
sg13
I0
sg14
I-72419
sg15
g5
sg16
g5
sg17
g5
sg18
g5
sg19
I0
sg20
g5
sg21
I0
sg22
g5
sg23
I0
sg24
I1945360
sg25
g5
sg26
g5
sg27
I264013
sg28
g5
sg29
g5
sg30
I1753766
ssS'HAEDICKE MARK E'
p235
(dp236
g3
I4009
sg4
I2157527
sg6
I76169
sg7
I0
sg8
I00
sg9
I983346
sg10
S'mark.haedicke@enron.com'
p237
sg12
I-934484
sg13
I0
sg14
I-329825
sg15
I1847
sg16
g5
sg17
I1941
sg18
I52382
sg19
I1
sg20
g5
sg21
I0
sg22
I1150000
sg23
I0
sg24
I803094
sg25
I180
sg26
I61
sg27
I524169
sg28
I374125
sg29
I3859065
sg30
I608750
ssS'BOWEN JR RAYMOND M'
p238
(dp239
g3
I1858
sg4
g5
sg6
I65907
sg7
I0
sg8
I01
sg9
I974293
sg10
S'raymond.bowen@enron.com'
p240
sg12
I-833
sg13
I0
sg14
g5
sg15
I1593
sg16
g5
sg17
I27
sg18
I1621
sg19
I0
sg20
g5
sg21
I0
sg22
I1350000
sg23
I0
sg24
I252055
sg25
I140
sg26
I15
sg27
I252055
sg28
I278601
sg29
I2669589
sg30
g5
ssS'GILLIS JOHN'
p241
(dp242
g3
g5
sg4
g5
sg6
g5
sg7
I0
sg8
I00
sg9
g5
sg10
g5
sg12
g5
sg13
I0
sg14
g5
sg15
g5
sg16
g5
sg17
g5
sg18
g5
sg19
I0
sg20
g5
sg21
I0
sg22
g5
sg23
I0
sg24
I85641
sg25
g5
sg26
g5
sg27
I75838
sg28
g5
sg29
g5
sg30
I9803
ssS'FITZGERALD JAY L'
p243
(dp244
g3
I936
sg4
g5
sg6
I23870
sg7
I0
sg8
I00
sg9
I556416
sg10
S'jay.fitzgerald@enron.com'
p245
sg12
g5
sg13
I1
sg14
g5
sg15
I723
sg16
g5
sg17
I16
sg18
I285414
sg19
I0
sg20
g5
sg21
I0
sg22
I350000
sg23
I0
sg24
I1621236
sg25
I1
sg26
I8
sg27
I956775
sg28
I199157
sg29
I1414857
sg30
I664461
ssS'MORAN MICHAEL P'
p246
(dp247
g3
I672
sg4
g5
sg6
g5
sg7
I0
sg8
I00
sg9
g5
sg10
S'michael.moran@enron.com'
p248
sg12
g5
sg13
I0
sg14
g5
sg15
I127
sg16
g5
sg17
I19
sg18
g5
sg19
I0
sg20
g5
sg21
I0
sg22
g5
sg23
I1
sg24
I221141
sg25
I0
sg26
I0
sg27
I161602
sg28
g5
sg29
g5
sg30
I59539
ssS'REDMOND BRIAN L'
p249
(dp250
g3
I1671
sg4
g5
sg6
I14689
sg7
I0
sg8
I00
sg9
g5
sg10
S'brian.redmond@enron.com'
p251
sg12
g5
sg13
I0
sg14
g5
sg15
I1063
sg16
g5
sg17
I221
sg18
g5
sg19
I0
sg20
g5
sg21
I0
sg22
g5
sg23
I0
sg24
I7890324
sg25
I204
sg26
I49
sg27
I381285
sg28
I96840
sg29
I111529
sg30
I7509039
ssS'BAZELIDES PHILIP J'
p252
(dp253
g3
g5
sg4
I684694
sg6
g5
sg7
I0
sg8
I00
sg9
I93750
sg10
g5
sg12
g5
sg13
I0
sg14
g5
sg15
g5
sg16
g5
sg17
g5
sg18
I874
sg19
I0
sg20
g5
sg21
I0
sg22
g5
sg23
I0
sg24
I1599641
sg25
g5
sg26
g5
sg27
g5
sg28
I80818
sg29
I860136
sg30
I1599641
ssS'BELDEN TIMOTHY N'
p254
(dp255
g3
I7991
sg4
I2144013
sg6
I17355
sg7
I0
sg8
I01
sg9
g5
sg10
S'tim.belden@enron.com'
p256
sg12
I-2334434
sg13
I0
sg14
g5
sg15
I5521
sg16
g5
sg17
I484
sg18
I210698
sg19
I0
sg20
g5
sg21
I0
sg22
I5249999
sg23
I0
sg24
I1110705
sg25
I228
sg26
I108
sg27
I157569
sg28
I213999
sg29
I5501630
sg30
I953136
ssS'DURAN WILLIAM D'
p257
(dp258
g3
I904
sg4
g5
sg6
I25785
sg7
I0
sg8
I00
sg9
I1105218
sg10
S'w.duran@enron.com'
p259
sg12
g5
sg13
I0
sg14
g5
sg15
I599
sg16
g5
sg17
I12
sg18
I1568
sg19
I0
sg20
g5
sg21
I0
sg22
I750000
sg23
I0
sg24
I1640910
sg25
I106
sg26
I3
sg27
I189041
sg28
I210692
sg29
I2093263
sg30
I1451869
ssS'THORN TERENCE H'
p260
(dp261
g3
I266
sg4
I16586
sg6
I46145
sg7
I0
sg8
I00
sg9
I200000
sg10
S'terence.thorn@enron.com'
p262
sg12
g5
sg13
I0
sg14
g5
sg15
I73
sg16
g5
sg17
I41
sg18
I426629
sg19
I0
sg20
g5
sg21
I1
sg22
g5
sg23
I0
sg24
I4817796
sg25
I0
sg26
I0
sg27
I365320
sg28
I222093
sg29
I911453
sg30
I4452476
ssS'FASTOW ANDREW S'
p263
(dp264
g3
g5
sg4
g5
sg6
I55921
sg7
I0
sg8
I01
sg9
I1736055
sg10
S'andrew.fastow@enron.com'
p265
sg12
I-1386055
sg13
I0
sg14
g5
sg15
g5
sg16
g5
sg17
g5
sg18
I277464
sg19
I0
sg20
g5
sg21
I0
sg22
I1300000
sg23
I0
sg24
I1794412
sg25
g5
sg26
g5
sg27
I1794412
sg28
I440698
sg29
I2424083
sg30
g5
ssS'FOY JOE'
p266
(dp267
g3
I57
sg4
I181755
sg6
g5
sg7
I0
sg8
I00
sg9
g5
sg10
S'tracy.foy@enron.com'
p268
sg12
g5
sg13
I0
sg14
g5
sg15
I2
sg16
g5
sg17
I13
sg18
g5
sg19
I0
sg20
g5
sg21
I0
sg22
g5
sg23
I0
sg24
I343434
sg25
I0
sg26
I0
sg27
g5
sg28
g5
sg29
I181755
sg30
I343434
ssS'CALGER CHRISTOPHER F'
p269
(dp270
g3
I2598
sg4
g5
sg6
I35818
sg7
I0
sg8
I01
sg9
I375304
sg10
S'christopher.calger@enron.com'
p271
sg12
I-262500
sg13
I0
sg14
g5
sg15
I2188
sg16
g5
sg17
I144
sg18
I486
sg19
I0
sg20
g5
sg21
I0
sg22
I1250000
sg23
I0
sg24
I126027
sg25
I199
sg26
I25
sg27
I126027
sg28
I240189
sg29
I1639297
sg30
g5
ssS'RICE KENNETH D'
p272
(dp273
g3
I905
sg4
g5
sg6
I46950
sg7
I0
sg8
I01
sg9
I1617011
sg10
S'ken.rice@enron.com'
p274
sg12
I-3504386
sg13
I1
sg14
g5
sg15
I864
sg16
g5
sg17
I18
sg18
I174839
sg19
I0
sg20
g5
sg21
I0
sg22
I1750000
sg23
I0
sg24
I22542539
sg25
I42
sg26
I4
sg27
I2748364
sg28
I420636
sg29
I505050
sg30
I19794175
ssS'KAMINSKI WINCENTY J'
p275
(dp276
g3
I4607
sg4
g5
sg6
I83585
sg7
I0
sg8
I00
sg9
I323466
sg10
S'vince.kaminski@enron.com'
p277
sg12
g5
sg13
I0
sg14
g5
sg15
I583
sg16
g5
sg17
I14368
sg18
I4669
sg19
I0
sg20
g5
sg21
I0
sg22
I400000
sg23
I0
sg24
I976037
sg25
I41
sg26
I171
sg27
I126027
sg28
I275101
sg29
I1086821
sg30
I850010
ssS'LOCKHART EUGENE E'
p278
(dp279
g3
g5
sg4
g5
sg6
g5
sg7
I0
sg8
I00
sg9
g5
sg10
g5
sg12
g5
sg13
I0
sg14
g5
sg15
g5
sg16
g5
sg17
g5
sg18
g5
sg19
I0
sg20
g5
sg21
I0
sg22
g5
sg23
I0
sg24
g5
sg25
g5
sg26
g5
sg27
g5
sg28
g5
sg29
g5
sg30
g5
ssS'COX DAVID'
p280
(dp281
g3
I102
sg4
g5
sg6
I27861
sg7
I0
sg8
I00
sg9
g5
sg10
S'chip.cox@enron.com'
p282
sg12
I-41250
sg13
I0
sg14
g5
sg15
I71
sg16
g5
sg17
I33
sg18
I494
sg19
I0
sg20
g5
sg21
I0
sg22
I800000
sg23
I0
sg24
I495633
sg25
I0
sg26
I4
sg27
I378082
sg28
I314288
sg29
I1101393
sg30
I117551
ssS'OVERDYKE JR JERE C'
p283
(dp284
g3
g5
sg4
g5
sg6
I18834
sg7
I0
sg8
I00
sg9
I135836
sg10
S'jere.overdyke@enron.com'
p285
sg12
g5
sg13
I0
sg14
g5
sg15
g5
sg16
g5
sg17
g5
sg18
I176
sg19
I0
sg20
g5
sg21
I0
sg22
g5
sg23
I0
sg24
I7307594
sg25
g5
sg26
g5
sg27
I2041016
sg28
I94941
sg29
I249787
sg30
I5266578
ssS'PEREIRA PAULO V. FERRAZ'
p286
(dp287
g3
g5
sg4
g5
sg6
I27942
sg7
I0
sg8
I00
sg9
g5
sg10
g5
sg12
I-101250
sg13
I0
sg14
g5
sg15
g5
sg16
g5
sg17
g5
sg18
g5
sg19
I0
sg20
I101250
sg21
I0
sg22
g5
sg23
I0
sg24
g5
sg25
g5
sg26
g5
sg27
g5
sg28
g5
sg29
I27942
sg30
g5
ssS'STABLER FRANK'
p288
(dp289
g3
g5
sg4
g5
sg6
I16514
sg7
I0
sg8
I00
sg9
g5
sg10
S'frank.stabler@enron.com'
p290
sg12
g5
sg13
I0
sg14
g5
sg15
g5
sg16
g5
sg17
g5
sg18
I356071
sg19
I0
sg20
g5
sg21
I0
sg22
I500000
sg23
I0
sg24
I511734
sg25
g5
sg26
g5
sg27
I511734
sg28
I239502
sg29
I1112087
sg30
g5
ssS'SKILLING JEFFREY K'
p291
(dp292
g3
I3627
sg4
g5
sg6
I29336
sg7
I0
sg8
I01
sg9
I1920000
sg10
S'jeff.skilling@enron.com'
p293
sg12
g5
sg13
I3
sg14
g5
sg15
I2042
sg16
g5
sg17
I108
sg18
I22122
sg19
I1
sg20
g5
sg21
I0
sg22
I5600000
sg23
I0
sg24
I26093672
sg25
I88
sg26
I30
sg27
I6843672
sg28
I1111258
sg29
I8682716
sg30
I19250000
ssS'BLAKE JR. NORMAN P'
p294
(dp295
g3
g5
sg4
g5
sg6
I1279
sg7
I0
sg8
I00
sg9
g5
sg10
g5
sg12
I-113784
sg13
I0
sg14
g5
sg15
g5
sg16
g5
sg17
g5
sg18
g5
sg19
I0
sg20
I113784
sg21
I0
sg22
g5
sg23
I0
sg24
g5
sg25
g5
sg26
g5
sg27
g5
sg28
g5
sg29
I1279
sg30
g5
ssS'SHERRICK JEFFREY B'
p296
(dp297
g3
I613
sg4
g5
sg6
g5
sg7
I0
sg8
I00
sg9
g5
sg10
S'jeffrey.sherrick@enron.com'
p298
sg12
g5
sg13
I0
sg14
g5
sg15
I583
sg16
g5
sg17
I25
sg18
g5
sg19
I0
sg20
g5
sg21
I0
sg22
g5
sg23
I0
sg24
I1832468
sg25
I39
sg26
I18
sg27
I405999
sg28
g5
sg29
g5
sg30
I1426469
ssS'PRENTICE JAMES'
p299
(dp300
g3
g5
sg4
I564348
sg6
g5
sg7
I0
sg8
I00
sg9
g5
sg10
S'james.prentice@enron.com'
p301
sg12
g5
sg13
I0
sg14
g5
sg15
g5
sg16
g5
sg17
g5
sg18
g5
sg19
I0
sg20
g5
sg21
I0
sg22
g5
sg23
I0
sg24
I1095040
sg25
g5
sg26
g5
sg27
I208809
sg28
g5
sg29
I564348
sg30
I886231
ssS'GRAY RODNEY'
p302
(dp303
g3
g5
sg4
I93585
sg6
g5
sg7
I0
sg8
I00
sg9
I365625
sg10
g5
sg12
g5
sg13
I0
sg14
g5
sg15
g5
sg16
g5
sg17
g5
sg18
I680833
sg19
I0
sg20
g5
sg21
I0
sg22
g5
sg23
I0
sg24
g5
sg25
g5
sg26
g5
sg27
g5
sg28
I6615
sg29
I1146658
sg30
g5
ssS'PICKERING MARK R'
p304
(dp305
g3
I898
sg4
g5
sg6
I31653
sg7
I0
sg8
I00
sg9
g5
sg10
S'mark.pickering@enron.com'
p306
sg12
g5
sg13
I0
sg14
g5
sg15
I728
sg16
I400000
sg17
I67
sg18
g5
sg19
I0
sg20
g5
sg21
I0
sg22
I300000
sg23
I0
sg24
I28798
sg25
I7
sg26
I0
sg27
g5
sg28
I655037
sg29
I1386690
sg30
I28798
ssS'THE TRAVEL AGENCY IN THE PARK'
p307
(dp308
g3
g5
sg4
g5
sg6
g5
sg7
I0
sg8
I00
sg9
g5
sg10
g5
sg12
g5
sg13
I0
sg14
g5
sg15
g5
sg16
g5
sg17
g5
sg18
I362096
sg19
I0
sg20
g5
sg21
I0
sg22
g5
sg23
I0
sg24
g5
sg25
g5
sg26
g5
sg27
g5
sg28
g5
sg29
I362096
sg30
g5
ssS'NOLES JAMES L'
p309
(dp310
g3
g5
sg4
I774401
sg6
g5
sg7
I0
sg8
I00
sg9
g5
sg10
g5
sg12
g5
sg13
I0
sg14
I-94556
sg15
g5
sg16
g5
sg17
g5
sg18
g5
sg19
I0
sg20
g5
sg21
I0
sg22
g5
sg23
I0
sg24
I368705
sg25
g5
sg26
g5
sg27
I463261
sg28
g5
sg29
I774401
sg30
g5
ssS'KEAN STEVEN J'
p311
(dp312
g3
I12754
sg4
g5
sg6
I41953
sg7
I0
sg8
I00
sg9
I300000
sg10
S'steven.kean@enron.com'
p313
sg12
g5
sg13
I0
sg14
g5
sg15
I3639
sg16
g5
sg17
I6759
sg18
I1231
sg19
I0
sg20
g5
sg21
I0
sg22
I1000000
sg23
I0
sg24
I6153642
sg25
I140
sg26
I387
sg27
I4131594
sg28
I404338
sg29
I1747522
sg30
I2022048
ssS'TOTAL'
p314
(dp315
g3
g5
sg4
I32083396
sg6
I5235198
sg7
I0
sg8
I00
sg9
I48521928
sg10
g5
sg12
I-27992891
sg13
I0
sg14
I-7576788
sg15
g5
sg16
I83925000
sg17
g5
sg18
I42667589
sg19
I0
sg20
I1398517
sg21
I0
sg22
I97343619
sg23
I0
sg24
I434509511
sg25
g5
sg26
g5
sg27
I130322299
sg28
I26704229
sg29
I309886585
sg30
I311764000
ssS'FOWLER PEGGY'
p316
(dp317
g3
I517
sg4
g5
sg6
g5
sg7
I0
sg8
I00
sg9
g5
sg10
S'kulvinder.fowler@enron.com'
p318
sg12
g5
sg13
I0
sg14
g5
sg15
I10
sg16
g5
sg17
I36
sg18
g5
sg19
I0
sg20
g5
sg21
I0
sg22
g5
sg23
I0
sg24
I1884748
sg25
I0
sg26
I0
sg27
I560170
sg28
g5
sg29
g5
sg30
I1324578
ssS'WASAFF GEORGE'
p319
(dp320
g3
I400
sg4
I831299
sg6
g5
sg7
I2
sg8
I00
sg9
I200000
sg10
S'george.wasaff@enron.com'
p321
sg12
I-583325
sg13
I0
sg14
g5
sg15
I337
sg16
g5
sg17
I30
sg18
I1425
sg19
I0
sg20
g5
sg21
I0
sg22
I325000
sg23
I2
sg24
I2056427
sg25
I22
sg26
I7
sg27
I388167
sg28
I259996
sg29
I1034395
sg30
I1668260
ssS'WHITE JR THOMAS E'
p322
(dp323
g3
g5
sg4
g5
sg6
I81353
sg7
I0
sg8
I00
sg9
g5
sg10
S'thomas.white@enron.com'
p324
sg12
g5
sg13
I0
sg14
g5
sg15
g5
sg16
g5
sg17
g5
sg18
I1085463
sg19
I0
sg20
g5
sg21
I0
sg22
I450000
sg23
I0
sg24
I15144123
sg25
g5
sg26
g5
sg27
I13847074
sg28
I317543
sg29
I1934359
sg30
I1297049
ssS'CHRISTODOULOU DIOMEDES'
p325
(dp326
g3
g5
sg4
g5
sg6
g5
sg7
I0
sg8
I00
sg9
g5
sg10
S'diomedes.christodoulou@enron.com'
p327
sg12
g5
sg13
I0
sg14
g5
sg15
g5
sg16
g5
sg17
g5
sg18
g5
sg19
I0
sg20
g5
sg21
I0
sg22
g5
sg23
I0
sg24
I6077885
sg25
g5
sg26
g5
sg27
I950730
sg28
g5
sg29
g5
sg30
I5127155
ssS'ALLEN PHILLIP K'
p328
(dp329
g3
I2902
sg4
I2869717
sg6
I13868
sg7
I0
sg8
I00
sg9
I304805
sg10
S'phillip.allen@enron.com'
p330
sg12
I-3081055
sg13
I0
sg14
I-126027
sg15
I1407
sg16
g5
sg17
I2195
sg18
I152
sg19
I0
sg20
g5
sg21
I0
sg22
I4175000
sg23
I0
sg24
I1729541
sg25
I47
sg26
I65
sg27
I126027
sg28
I201955
sg29
I4484442
sg30
I1729541
ssS'SHARP VICTORIA T'
p331
(dp332
g3
I3136
sg4
I187469
sg6
I116337
sg7
I0
sg8
I00
sg9
I422158
sg10
S'vicki.sharp@enron.com'
p333
sg12
g5
sg13
I0
sg14
g5
sg15
I2477
sg16
g5
sg17
I136
sg18
I2401
sg19
I0
sg20
g5
sg21
I1
sg22
I600000
sg23
I0
sg24
I494136
sg25
I24
sg26
I6
sg27
I213063
sg28
I248146
sg29
I1576511
sg30
I281073
ssS'JAEDICKE ROBERT'
p334
(dp335
g3
g5
sg4
g5
sg6
g5
sg7
I0
sg8
I00
sg9
g5
sg10
g5
sg12
I-25000
sg13
I0
sg14
I-44093
sg15
g5
sg16
g5
sg17
g5
sg18
g5
sg19
I0
sg20
I108750
sg21
I0
sg22
g5
sg23
I0
sg24
I431750
sg25
g5
sg26
g5
sg27
I44093
sg28
g5
sg29
I83750
sg30
I431750
ssS'WINOKUR JR. HERBERT S'
p336
(dp337
g3
g5
sg4
g5
sg6
I1413
sg7
I0
sg8
I00
sg9
g5
sg10
g5
sg12
I-25000
sg13
I0
sg14
g5
sg15
g5
sg16
g5
sg17
g5
sg18
g5
sg19
I0
sg20
I108579
sg21
I0
sg22
g5
sg23
I0
sg24
g5
sg25
g5
sg26
g5
sg27
g5
sg28
g5
sg29
I84992
sg30
g5
ssS'BROWN MICHAEL'
p338
(dp339
g3
I1486
sg4
g5
sg6
I49288
sg7
I0
sg8
I00
sg9
g5
sg10
S'michael.brown@enron.com'
p340
sg12
g5
sg13
I0
sg14
g5
sg15
I761
sg16
g5
sg17
I41
sg18
g5
sg19
I0
sg20
g5
sg21
I0
sg22
g5
sg23
I0
sg24
g5
sg25
I13
sg26
I1
sg27
g5
sg28
g5
sg29
I49288
sg30
g5
ssS'BADUM JAMES P'
p341
(dp342
g3
g5
sg4
I178980
sg6
I3486
sg7
I0
sg8
I00
sg9
g5
sg10
g5
sg12
g5
sg13
I0
sg14
g5
sg15
g5
sg16
g5
sg17
g5
sg18
g5
sg19
I0
sg20
g5
sg21
I0
sg22
g5
sg23
I0
sg24
I257817
sg25
g5
sg26
g5
sg27
g5
sg28
g5
sg29
I182466
sg30
I257817
ssS'HUGHES JAMES A'
p343
(dp344
g3
I719
sg4
g5
sg6
g5
sg7
I0
sg8
I00
sg9
g5
sg10
S'james.hughes@enron.com'
p345
sg12
g5
sg13
I0
sg14
g5
sg15
I589
sg16
g5
sg17
I34
sg18
g5
sg19
I0
sg20
g5
sg21
I0
sg22
g5
sg23
I0
sg24
I1118394
sg25
I35
sg26
I5
sg27
I363428
sg28
g5
sg29
g5
sg30
I754966
ssS'REYNOLDS LAWRENCE'
p346
(dp347
g3
g5
sg4
I51365
sg6
I8409
sg7
I0
sg8
I00
sg9
I156250
sg10
g5
sg12
I-200000
sg13
I0
sg14
I-140264
sg15
g5
sg16
g5
sg17
g5
sg18
I202052
sg19
I0
sg20
g5
sg21
I0
sg22
I100000
sg23
I0
sg24
I4221891
sg25
g5
sg26
g5
sg27
I201483
sg28
I76399
sg29
I394475
sg30
I4160672
ssS'DIMICHELE RICHARD G'
p348
(dp349
g3
g5
sg4
g5
sg6
I35812
sg7
I0
sg8
I00
sg9
I694862
sg10
S'richard.dimichele@enron.com'
p350
sg12
g5
sg13
I0
sg14
g5
sg15
g5
sg16
g5
sg17
g5
sg18
I374689
sg19
I0
sg20
g5
sg21
I0
sg22
I1000000
sg23
I0
sg24
I8317782
sg25
g5
sg26
g5
sg27
I126027
sg28
I262788
sg29
I2368151
sg30
I8191755
ssS'BHATNAGAR SANJAY'
p351
(dp352
g3
I523
sg4
g5
sg6
g5
sg7
I1
sg8
I00
sg9
g5
sg10
S'sanjay.bhatnagar@enron.com'
p353
sg12
g5
sg13
I0
sg14
I15456290
sg15
I463
sg16
g5
sg17
I29
sg18
I137864
sg19
I0
sg20
I137864
sg21
I0
sg22
g5
sg23
I0
sS'total_stock_value'
p354
S'NaN'
p355
sg25
I0
sg26
I1
sg27
I-2604490
sg28
g5
sg29
I15456290
sg30
I2604490
ssS'CARTER REBECCA C'
p356
(dp357
g3
I312
sg4
g5
sg6
g5
sg7
I0
sg8
I00
sg9
I75000
sg10
S'rebecca.carter@enron.com'
p358
sg12
I-159792
sg13
I0
sg14
I-307301
sg15
I196
sg16
g5
sg17
I15
sg18
I540
sg19
I0
sg20
g5
sg21
I0
sg22
I300000
sg23
I0
sg24
g5
sg25
I29
sg26
I7
sg27
I307301
sg28
I261809
sg29
I477557
sg30
g5
ssS'BUCHANAN HAROLD G'
p359
(dp360
g3
I1088
sg4
g5
sg6
I600
sg7
I0
sg8
I00
sg9
I304805
sg10
S'john.buchanan@enron.com'
p361
sg12
g5
sg13
I0
sg14
g5
sg15
I23
sg16
g5
sg17
I125
sg18
I1215
sg19
I0
sg20
g5
sg21
I0
sg22
I500000
sg23
I0
sg24
I1014505
sg25
I0
sg26
I0
sg27
I189041
sg28
I248017
sg29
I1054637
sg30
I825464
ssS'YEAP SOON'
p362
(dp363
g3
g5
sg4
g5
sg6
I55097
sg7
I0
sg8
I00
sg9
g5
sg10
g5
sg12
g5
sg13
I0
sg14
g5
sg15
g5
sg16
g5
sg17
g5
sg18
g5
sg19
I0
sg20
g5
sg21
I0
sg22
g5
sg23
I0
sg24
I192758
sg25
g5
sg26
g5
sg27
g5
sg28
g5
sg29
I55097
sg30
I192758
ssS'MURRAY JULIA H'
p364
(dp365
g3
I2192
sg4
g5
sg6
I57580
sg7
I0
sg8
I00
sg9
I125000
sg10
S'julia.murray@enron.com'
p366
sg12
g5
sg13
I0
sg14
g5
sg15
I395
sg16
g5
sg17
I45
sg18
I330
sg19
I0
sg20
g5
sg21
I0
sg22
I400000
sg23
I0
sg24
I597461
sg25
I11
sg26
I2
sg27
I196983
sg28
I229284
sg29
I812194
sg30
I400478
ssS'GARLAND C KEVIN'
p367
(dp368
g3
I209
sg4
g5
sg6
I48405
sg7
I0
sg8
I00
sg9
I375304
sg10
S'kevin.garland@enron.com'
p369
sg12
g5
sg13
I2
sg14
g5
sg15
I178
sg16
g5
sg17
I44
sg18
I60814
sg19
I0
sg20
g5
sg21
I0
sg22
I850000
sg23
I0
sg24
I896153
sg25
I10
sg26
I27
sg27
I259907
sg28
I231946
sg29
I1566469
sg30
I636246
ssS'DODSON KEITH'
p370
(dp371
g3
I176
sg4
g5
sg6
I28164
sg7
I0
sg8
I00
sg9
g5
sg10
S'keith.dodson@enron.com'
p372
sg12
g5
sg13
I0
sg14
g5
sg15
I114
sg16
g5
sg17
I14
sg18
I774
sg19
I0
sg20
g5
sg21
I0
sg22
I70000
sg23
I0
sg24
g5
sg25
I10
sg26
I3
sg27
g5
sg28
I221003
sg29
I319941
sg30
g5
ssS'YEAGER F SCOTT'
p373
(dp374
g3
g5
sg4
g5
sg6
I53947
sg7
I0
sg8
I01
sg9
g5
sg10
S'scott.yeager@enron.com'
p375
sg12
g5
sg13
I0
sg14
g5
sg15
g5
sg16
g5
sg17
g5
sg18
I147950
sg19
I0
sg20
g5
sg21
I0
sg22
g5
sg23
I0
sg24
I11884758
sg25
g5
sg26
g5
sg27
I3576206
sg28
I158403
sg29
I360300
sg30
I8308552
ssS'HIRKO JOSEPH'
p376
(dp377
g3
g5
sg4
I10259
sg6
I77978
sg7
I0
sg8
I01
sg9
g5
sg10
S'joe.hirko@enron.com'
p378
sg12
g5
sg13
I0
sg14
g5
sg15
g5
sg16
g5
sg17
g5
sg18
I2856
sg19
I0
sg20
g5
sg21
I0
sg22
g5
sg23
I0
sg24
I30766064
sg25
g5
sg26
g5
sg27
g5
sg28
g5
sg29
I91093
sg30
I30766064
ssS'DIETRICH JANET R'
p379
(dp380
g3
I2572
sg4
g5
sg6
I3475
sg7
I0
sg8
I00
sg9
I556416
sg10
S'janet.dietrich@enron.com'
p381
sg12
g5
sg13
I0
sg14
g5
sg15
I1902
sg16
g5
sg17
I63
sg18
I473
sg19
I0
sg20
g5
sg21
I0
sg22
I600000
sg23
I0
sg24
I1865087
sg25
I305
sg26
I14
sg27
I315068
sg28
I250100
sg29
I1410464
sg30
I1550019
ssS'DERRICK JR. JAMES V'
p382
(dp383
g3
I2181
sg4
g5
sg6
I51124
sg7
I0
sg8
I00
sg9
I484000
sg10
S'james.derrick@enron.com'
p384
sg12
I-1284000
sg13
I0
sg14
I-1787380
sg15
I1401
sg16
g5
sg17
I909
sg18
I7482
sg19
I0
sg20
g5
sg21
I0
sg22
I800000
sg23
I0
sg24
I8831913
sg25
I64
sg26
I20
sg27
I1787380
sg28
I492375
sg29
I550981
sg30
I8831913
ssS'FREVERT MARK A'
p385
(dp386
g3
I3275
sg4
I6426990
sg6
I86987
sg7
I0
sg8
I00
sg9
I1617011
sg10
S'mark.frevert@enron.com'
p387
sg12
I-3367011
sg13
I0
sg14
g5
sg15
I2979
sg16
I2000000
sg17
I21
sg18
I7427621
sg19
I0
sg20
g5
sg21
I0
sg22
I2000000
sg23
I0
sg24
I14622185
sg25
I242
sg26
I6
sg27
I4188667
sg28
I1060932
sg29
I17252530
sg30
I10433518
ssS'PAI LOU L'
p388
(dp389
g3
g5
sg4
g5
sg6
I32047
sg7
I0
sg8
I00
sg9
g5
sg10
S'lou.pai@enron.com'
p390
sg12
g5
sg13
I0
sg14
g5
sg15
g5
sg16
g5
sg17
g5
sg18
I1829457
sg19
I0
sg20
g5
sg21
I0
sg22
I1000000
sg23
I0
sg24
I23817930
sg25
g5
sg26
g5
sg27
I8453763
sg28
I261879
sg29
I3123383
sg30
I15364167
ssS'BAY FRANKLIN R'
p391
(dp392
g3
g5
sg4
I260455
sg6
I129142
sg7
I0
sg8
I00
sg9
g5
sg10
S'frank.bay@enron.com'
p393
sg12
I-201641
sg13
I0
sg14
I-82782
sg15
g5
sg16
g5
sg17
g5
sg18
I69
sg19
I0
sg20
g5
sg21
I0
sg22
I400000
sg23
I0
sg24
I63014
sg25
g5
sg26
g5
sg27
I145796
sg28
I239671
sg29
I827696
sg30
g5
ssS'HAYSLETT RODERICK J'
p394
(dp395
g3
I2649
sg4
g5
sg6
g5
sg7
I0
sg8
I00
sg9
g5
sg10
S'rod.hayslett@enron.com'
p396
sg12
g5
sg13
I0
sg14
g5
sg15
I571
sg16
g5
sg17
I1061
sg18
g5
sg19
I0
sg20
g5
sg21
I0
sg22
g5
sg23
I0
sg24
I346663
sg25
I35
sg26
I38
sg27
I346663
sg28
g5
sg29
g5
sg30
g5
ssS'FUGH JOHN L'
p397
(dp398
g3
g5
sg4
I50591
sg6
g5
sg7
I0
sg8
I00
sg9
g5
sg10
g5
sg12
g5
sg13
I0
sg14
g5
sg15
g5
sg16
g5
sg17
g5
sg18
g5
sg19
I0
sg20
g5
sg21
I0
sg22
g5
sg23
I0
sg24
I176378
sg25
g5
sg26
g5
sg27
g5
sg28
g5
sg29
I50591
sg30
I176378
ssS'FALLON JAMES B'
p399
(dp400
g3
I1755
sg4
g5
sg6
I95924
sg7
I0
sg8
I00
sg9
I374347
sg10
S'jim.fallon@enron.com'
p401
sg12
g5
sg13
I0
sg14
g5
sg15
I1604
sg16
g5
sg17
I75
sg18
I401481
sg19
I0
sg20
g5
sg21
I0
sg22
I2500000
sg23
I1
sg24
I2332399
sg25
I42
sg26
I37
sg27
I1392142
sg28
I304588
sg29
I3676340
sg30
I940257
ssS'KOENIG MARK E'
p402
(dp403
g3
I2374
sg4
g5
sg6
I127017
sg7
I0
sg8
I01
sg9
I300000
sg10
S'mark.koenig@enron.com'
p404
sg12
g5
sg13
I0
sg14
g5
sg15
I2271
sg16
g5
sg17
I61
sg18
I150458
sg19
I0
sg20
g5
sg21
I1
sg22
I700000
sg23
I0
sg24
I1920055
sg25
I53
sg26
I15
sg27
I1248318
sg28
I309946
sg29
I1587421
sg30
I671737
ssS'SAVAGE FRANK'
p405
(dp406
g3
g5
sg4
g5
sg6
g5
sg7
I0
sg8
I00
sg9
g5
sg10
g5
sg12
I-121284
sg13
I0
sg14
g5
sg15
g5
sg16
g5
sg17
g5
sg18
g5
sg19
I0
sg20
I125034
sg21
I0
sg22
g5
sg23
I0
sg24
g5
sg25
g5
sg26
g5
sg27
g5
sg28
g5
sg29
I3750
sg30
g5
ssS'IZZO LAWRENCE L'
p407
(dp408
g3
I496
sg4
g5
sg6
I28093
sg7
I1
sg8
I00
sg9
I312500
sg10
S'larry.izzo@enron.com'
p409
sg12
g5
sg13
I0
sg14
g5
sg15
I437
sg16
g5
sg17
I19
sg18
I1553729
sg19
I0
sg20
g5
sg21
I0
sg22
g5
sg23
I0
sg24
I5819980
sg25
I28
sg26
I5
sg27
I3654808
sg28
I85274
sg29
I1979596
sg30
I2165172
ssS'TILNEY ELIZABETH A'
p410
(dp411
g3
I460
sg4
g5
sg6
g5
sg7
I0
sg8
I00
sg9
I275000
sg10
S'elizabeth.tilney@enron.com'
p412
sg12
I-575000
sg13
I0
sg14
g5
sg15
I379
sg16
g5
sg17
I19
sg18
I152055
sg19
I0
sg20
g5
sg21
I0
sg22
I300000
sg23
I0
sg24
I1168042
sg25
I10
sg26
I11
sg27
I576792
sg28
I247338
sg29
I399393
sg30
I591250
ssS'MARTIN AMANDA K'
p413
(dp414
g3
I1522
sg4
I85430
sg6
I8211
sg7
I0
sg8
I00
sg9
I5145434
sg10
S'a..martin@enron.com'
p415
sg12
g5
sg13
I0
sg14
g5
sg15
I477
sg16
g5
sg17
I230
sg18
I2818454
sg19
I0
sg20
g5
sg21
I0
sg22
g5
sg23
I0
sg24
I2070306
sg25
I8
sg26
I0
sg27
g5
sg28
I349487
sg29
I8407016
sg30
I2070306
ssS'BUY RICHARD B'
p416
(dp417
g3
I3523
sg4
I649584
sg6
g5
sg7
I0
sg8
I00
sg9
I769862
sg10
S'rick.buy@enron.com'
p418
sg12
I-694862
sg13
I0
sg14
g5
sg15
I2333
sg16
g5
sg17
I1053
sg18
I400572
sg19
I0
sg20
g5
sg21
I0
sg22
I900000
sg23
I0
sg24
I3444470
sg25
I156
sg26
I71
sg27
I901657
sg28
I330546
sg29
I2355702
sg30
I2542813
ssS'GRAMM WENDY L'
p419
(dp420
g3
g5
sg4
g5
sg6
g5
sg7
I0
sg8
I00
sg9
g5
sg10
g5
sg12
g5
sg13
I0
sg14
g5
sg15
g5
sg16
g5
sg17
g5
sg18
g5
sg19
I0
sg20
I119292
sg21
I0
sg22
g5
sg23
I0
sg24
g5
sg25
g5
sg26
g5
sg27
g5
sg28
g5
sg29
I119292
sg30
g5
ssS'CAUSEY RICHARD A'
p421
(dp422
g3
I1892
sg4
g5
sg6
I30674
sg7
I2
sg8
I01
sg9
I350000
sg10
S'richard.causey@enron.com'
p423
sg12
I-235000
sg13
I0
sg14
g5
sg15
I1585
sg16
g5
sg17
I49
sg18
I307895
sg19
I0
sg20
g5
sg21
I0
sg22
I1000000
sg23
I1
sg24
I2502063
sg25
I58
sg26
I12
sg27
I2502063
sg28
I415189
sg29
I1868758
sg30
g5
ssS'TAYLOR MITCHELL S'
p424
(dp425
g3
I533
sg4
I227449
sg6
g5
sg7
I0
sg8
I00
sg9
g5
sg10
S'mitchell.taylor@enron.com'
p426
sg12
g5
sg13
I0
sg14
g5
sg15
I300
sg16
g5
sg17
I29
sg18
g5
sg19
I0
sg20
g5
sg21
I0
sg22
I600000
sg23
I0
sg24
I3745048
sg25
I0
sg26
I0
sg27
I563798
sg28
I265214
sg29
I1092663
sg30
I3181250
ssS'DONAHUE JR JEFFREY M'
p427
(dp428
g3
I865
sg4
g5
sg6
I96268
sg7
I0
sg8
I00
sg9
g5
sg10
S'jeff.donahue@enron.com'
p429
sg12
I-300000
sg13
I0
sg14
g5
sg15
I772
sg16
g5
sg17
I22
sg18
I891
sg19
I0
sg20
g5
sg21
I0
sg22
I800000
sg23
I0
sg24
I1080988
sg25
I188
sg26
I11
sg27
I315068
sg28
I278601
sg29
I875760
sg30
I765920
ssS'GLISAN JR BEN F'
p430
(dp431
g3
I873
sg4
g5
sg6
I125978
sg7
I0
sg8
I01
sg9
I71023
sg10
S'ben.glisan@enron.com'
p432
sg12
g5
sg13
I0
sg14
g5
sg15
I874
sg16
g5
sg17
I16
sg18
I200308
sg19
I0
sg20
g5
sg21
I0
sg22
I600000
sg23
I0
sg24
I778546
sg25
I52
sg26
I6
sg27
I393818
sg28
I274975
sg29
I1272284
sg30
I384728
ss.