(dp0
S'METTS MARK'
p1
(dp2
S'to_messages'
p3
F807.0
sS'deferral_payments'
p4
S'NaN'
p5
sVprc
p6
I0
sS'expenses'
p7
F94299.0
sS'poi'
p8
I00
sS'long_term_incentive'
p9
S'NaN'
p10
sS'email_address'
p11
S'mark.metts@enron.com'
p12
sS'deferred_income'
p13
S'NaN'
p14
sS'exercised_stock_options'
p15
S'NaN'
p16
sVsale
p17
I2
sS'shared_receipt_with_poi'
p18
F702.0
sS'from_messages'
p19
F29.0
sS'other'
p20
F1740.0
sVholiday
p21
I1
sS'bonus'
p22
F600000.0
sVregard
p23
I0
sS'total_stock_value'
p24
F585062.0
sVvolume
p25
I0
sS'restricted_stock'
p26
F585062.0
sS'salary'
p27
F365788.0
sVresource
p28
I0
sS'total_payments'
p29
F1061827.0
sVbudget
p30
I0
sVmorning
p31
I0
sVperson
p32
I2
sVsecurity
p33
I1
ssS'BAXTER JOHN C'
p34
(dp35
g3
S'NaN'
p36
sg4
F1295738.0
sg6
I0
sg7
F11200.0
sg8
I00
sg9
F1586055.0
sg11
S'NaN'
p37
sg13
F-1386055.0
sg15
F6680544.0
sg17
I0
sg18
S'NaN'
p38
sg19
S'NaN'
p39
sg20
F2660303.0
sg21
I0
sg22
F1200000.0
sg23
I0
sg24
F10623258.0
sg25
I0
sg26
F3942714.0
sg27
F267102.0
sg28
I0
sg29
F5634343.0
sg30
I0
sg31
I0
sg32
I0
sg33
I0
ssS'ELLIOTT STEVEN'
p40
(dp41
g3
g36
sg4
g5
sg6
I0
sg7
F78552.0
sg8
I00
sg9
g10
sg11
S'steven.elliott@enron.com'
p42
sg13
F-400729.0
sg15
F4890344.0
sg17
I0
sg18
g38
sg19
g39
sg20
F12961.0
sg21
I0
sg22
F350000.0
sg23
I0
sg24
F6678735.0
sg25
I0
sg26
F1788391.0
sg27
F170941.0
sg28
I0
sg29
F211725.0
sg30
I0
sg31
I0
sg32
I0
sg33
I0
ssS'CORDES WILLIAM R'
p43
(dp44
g3
F764.0
sg4
g5
sg6
I0
sg7
S'NaN'
p45
sg8
I00
sg9
g10
sg11
S'bill.cordes@enron.com'
p46
sg13
g14
sg15
F651850.0
sg17
I0
sg18
F58.0
sg19
F12.0
sg20
S'NaN'
p47
sg21
I0
sg22
S'NaN'
p48
sg23
I0
sg24
F1038185.0
sg25
I0
sg26
F386335.0
sg27
S'NaN'
p49
sg28
I0
sg29
S'NaN'
p50
sg30
I0
sg31
I0
sg32
I0
sg33
I0
ssS'HANNON KEVIN P'
p51
(dp52
g3
F1045.0
sg4
g5
sg6
I1
sg7
F34039.0
sg8
I01
sg9
F1617011.0
sg11
S'kevin.hannon@enron.com'
p53
sg13
F-3117011.0
sg15
F5538001.0
sg17
I0
sg18
F1035.0
sg19
F32.0
sg20
F11350.0
sg21
I2
sg22
F1500000.0
sg23
I0
sg24
F6391065.0
sg25
I1
sg26
F853064.0
sg27
F243293.0
sg28
I0
sg29
F288682.0
sg30
I0
sg31
I0
sg32
I1
sg33
I0
ssS'MORDAUNT KRISTINA M'
p54
(dp55
g3
g36
sg4
g5
sg6
I0
sg7
F35018.0
sg8
I00
sg9
g10
sg11
S'kristina.mordaunt@enron.com'
p56
sg13
g14
sg15
g16
sg17
I0
sg18
g38
sg19
g39
sg20
F1411.0
sg21
I0
sg22
F325000.0
sg23
I0
sg24
F208510.0
sg25
I0
sg26
F208510.0
sg27
F267093.0
sg28
I0
sg29
F628522.0
sg30
I0
sg31
I0
sg32
I0
sg33
I0
ssS'MEYER ROCKFORD G'
p57
(dp58
g3
F232.0
sg4
F1848227.0
sg6
I0
sg7
g45
sg8
I00
sg9
g10
sg11
S'rockford.meyer@enron.com'
p59
sg13
g14
sg15
F493489.0
sg17
I0
sg18
F22.0
sg19
F28.0
sg20
g47
sg21
I0
sg22
g48
sg23
I0
sg24
F955873.0
sg25
I0
sg26
F462384.0
sg27
g49
sg28
I0
sg29
F1848227.0
sg30
I0
sg31
I1
sg32
I1
sg33
I0
ssS'MCMAHON JEFFREY'
p60
(dp61
g3
F2355.0
sg4
g5
sg6
I0
sg7
F137108.0
sg8
I00
sg9
F694862.0
sg11
S'jeffrey.mcmahon@enron.com'
p62
sg13
g14
sg15
F1104054.0
sg17
I0
sg18
F2228.0
sg19
F48.0
sg20
F297353.0
sg21
I0
sg22
F2600000.0
sg23
I1
sg24
F1662855.0
sg25
I0
sg26
F558801.0
sg27
F370448.0
sg28
I0
sg29
F4099771.0
sg30
I0
sg31
I0
sg32
I0
sg33
I1
ssS'HAEDICKE MARK E'
p63
(dp64
g3
F4009.0
sg4
F2157527.0
sg6
I0
sg7
F76169.0
sg8
I00
sg9
F983346.0
sg11
S'mark.haedicke@enron.com'
p65
sg13
F-934484.0
sg15
F608750.0
sg17
I0
sg18
F1847.0
sg19
F1941.0
sg20
F52382.0
sg21
I0
sg22
F1150000.0
sg23
I0
sg24
F803094.0
sg25
I1
sg26
F524169.0
sg27
F374125.0
sg28
I0
sg29
F3859065.0
sg30
I0
sg31
I0
sg32
I0
sg33
I0
ssS'PIPER GREGORY F'
p66
(dp67
g3
F1238.0
sg4
F1130036.0
sg6
I0
sg7
F43057.0
sg8
I00
sg9
g10
sg11
S'greg.piper@enron.com'
p68
sg13
F-33333.0
sg15
F880290.0
sg17
I0
sg18
F742.0
sg19
F222.0
sg20
F778.0
sg21
I0
sg22
F400000.0
sg23
I0
sg24
F880290.0
sg25
I0
sg26
F409554.0
sg27
F197091.0
sg28
I0
sg29
F1737629.0
sg30
I1
sg31
I0
sg32
I0
sg33
I0
ssS'HUMPHREY GENE E'
p69
(dp70
g3
F128.0
sg4
F2964506.0
sg6
I0
sg7
F4994.0
sg8
I00
sg9
g10
sg11
S'gene.humphrey@enron.com'
p71
sg13
g14
sg15
F2282768.0
sg17
I0
sg18
F119.0
sg19
F17.0
sg20
g47
sg21
I0
sg22
g48
sg23
I0
sg24
F2282768.0
sg25
I0
sg26
S'NaN'
p72
sg27
F130724.0
sg28
I0
sg29
F3100224.0
sg30
I0
sg31
I0
sg32
I0
sg33
I1
ssS'NOLES JAMES L'
p73
(dp74
g3
g36
sg4
F774401.0
sg6
I0
sg7
g45
sg8
I00
sg9
g10
sg11
g37
sg13
g14
sg15
g16
sg17
I0
sg18
g38
sg19
g39
sg20
g47
sg21
I0
sg22
g48
sg23
I0
sg24
F368705.0
sg25
I0
sg26
F463261.0
sg27
g49
sg28
I0
sg29
F774401.0
sg30
I0
sg31
I0
sg32
I0
sg33
I0
ssS'BLACHMAN JEREMY M'
p75
(dp76
g3
F2475.0
sg4
g5
sg6
I0
sg7
F84208.0
sg8
I00
sg9
F831809.0
sg11
S'jeremy.blachman@enron.com'
p77
sg13
g14
sg15
F765313.0
sg17
I0
sg18
F2326.0
sg19
F14.0
sg20
F272.0
sg21
I0
sg22
F850000.0
sg23
I0
sg24
F954354.0
sg25
I0
sg26
F189041.0
sg27
F248546.0
sg28
I0
sg29
F2014835.0
sg30
I0
sg31
I0
sg32
I0
sg33
I0
ssS'SUNDE MARTIN'
p78
(dp79
g3
F2647.0
sg4
g5
sg6
I0
sg7
g45
sg8
I00
sg9
F476451.0
sg11
S'marty.sunde@enron.com'
p80
sg13
g14
sg15
g16
sg17
I0
sg18
F2565.0
sg19
F38.0
sg20
F111122.0
sg21
I0
sg22
F700000.0
sg23
I0
sg24
F698920.0
sg25
I0
sg26
F698920.0
sg27
F257486.0
sg28
I0
sg29
F1545059.0
sg30
I0
sg31
I0
sg32
I0
sg33
I0
ssS'GIBBS DANA R'
p81
(dp82
g3
F169.0
sg4
F504610.0
sg6
I0
sg7
g45
sg8
I00
sg9
F461912.0
sg11
S'dana.gibbs@enron.com'
p83
sg13
g14
sg15
F2218275.0
sg17
I1
sg18
F23.0
sg19
F12.0
sg20
g47
sg21
I0
sg22
g48
sg23
I0
sg24
F2218275.0
sg25
I0
sg26
g72
sg27
g49
sg28
I0
sg29
F966522.0
sg30
I0
sg31
I0
sg32
I0
sg33
I0
ssS'LOWRY CHARLES P'
p84
(dp85
g3
g36
sg4
g5
sg6
I0
sg7
g45
sg8
I00
sg9
g10
sg11
g37
sg13
g14
sg15
F372205.0
sg17
I0
sg18
g38
sg19
g39
sg20
g47
sg21
I0
sg22
g48
sg23
I0
sg24
F372205.0
sg25
I0
sg26
F153686.0
sg27
g49
sg28
I0
sg29
g50
sg30
I0
sg31
I0
sg32
I0
sg33
I0
ssS'COLWELL WESLEY'
p86
(dp87
g3
F1758.0
sg4
F27610.0
sg6
I1
sg7
F16514.0
sg8
I01
sg9
g10
sg11
S'wes.colwell@enron.com'
p88
sg13
F-144062.0
sg15
g16
sg17
I1
sg18
F1132.0
sg19
F40.0
sg20
F101740.0
sg21
I0
sg22
F1200000.0
sg23
I0
sg24
F698242.0
sg25
I0
sg26
F698242.0
sg27
F288542.0
sg28
I0
sg29
F1490344.0
sg30
I2
sg31
I0
sg32
I0
sg33
I0
ssS'MULLER MARK S'
p89
(dp90
g3
F136.0
sg4
F842924.0
sg6
I0
sg7
g45
sg8
I00
sg9
F1725545.0
sg11
S's..muller@enron.com'
p91
sg13
F-719000.0
sg15
F1056320.0
sg17
I0
sg18
F114.0
sg19
F16.0
sg20
F947.0
sg21
I0
sg22
F1100000.0
sg23
I0
sg24
F1416848.0
sg25
I0
sg26
F360528.0
sg27
F251654.0
sg28
I0
sg29
F3202070.0
sg30
I0
sg31
I0
sg32
I0
sg33
I1
ssS'JACKSON CHARLENE R'
p92
(dp93
g3
F258.0
sg4
g5
sg6
I0
sg7
F10181.0
sg8
I00
sg9
g10
sg11
S'charlene.jackson@enron.com'
p94
sg13
g14
sg15
F185063.0
sg17
I0
sg18
F117.0
sg19
F56.0
sg20
F2435.0
sg21
I0
sg22
F250000.0
sg23
I0
sg24
F725735.0
sg25
I0
sg26
F540672.0
sg27
F288558.0
sg28
I0
sg29
F551174.0
sg30
I1
sg31
I0
sg32
I0
sg33
I0
ssS'WESTFAHL RICHARD K'
p95
(dp96
g3
g36
sg4
g5
sg6
I0
sg7
F51870.0
sg8
I00
sg9
F256191.0
sg11
S'dick.westfahl@enron.com'
p97
sg13
F-10800.0
sg15
g16
sg17
I0
sg18
g38
sg19
g39
sg20
F401130.0
sg21
I0
sg22
g48
sg23
I0
sg24
F384930.0
sg25
I0
sg26
F384930.0
sg27
F63744.0
sg28
I0
sg29
F762135.0
sg30
I0
sg31
I0
sg32
I0
sg33
I0
ssS'WALTERS GARETH W'
p98
(dp99
g3
g36
sg4
F53625.0
sg6
I0
sg7
F33785.0
sg8
I00
sg9
g10
sg11
g37
sg13
g14
sg15
F1030329.0
sg17
I0
sg18
g38
sg19
g39
sg20
g47
sg21
I0
sg22
g48
sg23
I0
sg24
F1030329.0
sg25
I0
sg26
g72
sg27
g49
sg28
I0
sg29
F87410.0
sg30
I0
sg31
I0
sg32
I0
sg33
I0
ssS'WALLS JR ROBERT H'
p100
(dp101
g3
F671.0
sg4
g5
sg6
I0
sg7
F50936.0
sg8
I00
sg9
F540751.0
sg11
S'rob.walls@enron.com'
p102
sg13
g14
sg15
F4346544.0
sg17
I0
sg18
F215.0
sg19
F146.0
sg20
F2.0
sg21
I0
sg22
F850000.0
sg23
I0
sg24
F5898997.0
sg25
I0
sg26
F1552453.0
sg27
F357091.0
sg28
I0
sg29
F1798780.0
sg30
I0
sg31
I0
sg32
I0
sg33
I0
ssS'KITCHEN LOUISE'
p103
(dp104
g3
F8305.0
sg4
g5
sg6
I0
sg7
F5774.0
sg8
I00
sg9
g10
sg11
S'louise.kitchen@enron.com'
p105
sg13
g14
sg15
F81042.0
sg17
I1
sg18
F3669.0
sg19
F1728.0
sg20
F93925.0
sg21
I0
sg22
F3100000.0
sg23
I0
sg24
F547143.0
sg25
I1
sg26
F466101.0
sg27
F271442.0
sg28
I0
sg29
F3471141.0
sg30
I0
sg31
I1
sg32
I0
sg33
I0
ssS'CHAN RONNIE'
p106
(dp107
g3
g36
sg4
g5
sg6
I0
sg7
g45
sg8
I00
sg9
g10
sg11
g37
sg13
F-98784.0
sg15
g16
sg17
I0
sg18
g38
sg19
g39
sg20
g47
sg21
I0
sg22
g48
sg23
I0
sg24
S'NaN'
p108
sg25
I0
sg26
F32460.0
sg27
g49
sg28
I0
sg29
g50
sg30
I0
sg31
I0
sg32
I0
sg33
I0
ssS'BELFER ROBERT'
p109
(dp110
g3
g36
sg4
F-102500.0
sg6
I0
sg7
g45
sg8
I00
sg9
g10
sg11
g37
sg13
g14
sg15
F3285.0
sg17
I0
sg18
g38
sg19
g39
sg20
g47
sg21
I0
sg22
g48
sg23
I0
sg24
F-44093.0
sg25
I0
sg26
g72
sg27
g49
sg28
I0
sg29
F102500.0
sg30
I0
sg31
I0
sg32
I0
sg33
I0
ssS'SHANKMAN JEFFREY A'
p111
(dp112
g3
F3221.0
sg4
g5
sg6
I0
sg7
F178979.0
sg8
I00
sg9
F554422.0
sg11
S'jeffrey.shankman@enron.com'
p113
sg13
g14
sg15
F1441898.0
sg17
I0
sg18
F1730.0
sg19
F2681.0
sg20
F1191.0
sg21
I0
sg22
F2000000.0
sg23
I0
sg24
F2072035.0
sg25
I1
sg26
F630137.0
sg27
F304110.0
sg28
I0
sg29
F3038702.0
sg30
I0
sg31
I0
sg32
I0
sg33
I0
ssS'WODRASKA JOHN'
p114
(dp115
g3
g36
sg4
g5
sg6
I0
sg7
g45
sg8
I00
sg9
g10
sg11
S'john.wodraska@enron.com'
p116
sg13
g14
sg15
g16
sg17
I0
sg18
g38
sg19
g39
sg20
F189583.0
sg21
I0
sg22
g48
sg23
I0
sg24
g108
sg25
I0
sg26
g72
sg27
g49
sg28
I0
sg29
F189583.0
sg30
I0
sg31
I0
sg32
I0
sg33
I0
ssS'BERGSIEKER RICHARD P'
p117
(dp118
g3
F383.0
sg4
g5
sg6
I0
sg7
F59175.0
sg8
I00
sg9
F180250.0
sg11
S'rick.bergsieker@enron.com'
p119
sg13
F-485813.0
sg15
g16
sg17
I0
sg18
F233.0
sg19
F59.0
sg20
F427316.0
sg21
I0
sg22
F250000.0
sg23
I0
sg24
F659249.0
sg25
I0
sg26
F659249.0
sg27
F187922.0
sg28
I0
sg29
F618850.0
sg30
I0
sg31
I0
sg32
I1
sg33
I0
ssS'URQUHART JOHN A'
p120
(dp121
g3
g36
sg4
g5
sg6
I0
sg7
F228656.0
sg8
I00
sg9
g10
sg11
g37
sg13
F-36666.0
sg15
g16
sg17
I0
sg18
g38
sg19
g39
sg20
g47
sg21
I0
sg22
g48
sg23
I0
sg24
g108
sg25
I0
sg26
g72
sg27
g49
sg28
I0
sg29
F228656.0
sg30
I0
sg31
I0
sg32
I0
sg33
I0
ssS'BIBI PHILIPPE A'
p122
(dp123
g3
F1607.0
sg4
g5
sg6
I1
sg7
F38559.0
sg8
I00
sg9
F369721.0
sg11
S'philippe.bibi@enron.com'
p124
sg13
g14
sg15
F1465734.0
sg17
I0
sg18
F1336.0
sg19
F40.0
sg20
F425688.0
sg21
I1
sg22
F1000000.0
sg23
I1
sg24
F1843816.0
sg25
I1
sg26
F378082.0
sg27
F213625.0
sg28
I0
sg29
F2047593.0
sg30
I0
sg31
I0
sg32
I0
sg33
I0
ssS'RIEKER PAULA H'
p125
(dp126
g3
F1328.0
sg4
F214678.0
sg6
I0
sg7
F33271.0
sg8
I01
sg9
g10
sg11
S'paula.rieker@enron.com'
p127
sg13
F-100000.0
sg15
F1635238.0
sg17
I1
sg18
F1258.0
sg19
F82.0
sg20
F1950.0
sg21
I0
sg22
F700000.0
sg23
I0
sg24
F1918887.0
sg25
I0
sg26
F283649.0
sg27
F249201.0
sg28
I1
sg29
F1099100.0
sg30
I0
sg31
I0
sg32
I0
sg33
I1
ssS'WHALEY DAVID A'
p128
(dp129
g3
g36
sg4
g5
sg6
I0
sg7
g45
sg8
I00
sg9
g10
sg11
g37
sg13
g14
sg15
F98718.0
sg17
I0
sg18
g38
sg19
g39
sg20
g47
sg21
I0
sg22
g48
sg23
I0
sg24
F98718.0
sg25
I0
sg26
g72
sg27
g49
sg28
I0
sg29
g50
sg30
I0
sg31
I0
sg32
I0
sg33
I0
ssS'BECK SALLY W'
p130
(dp131
g3
F7315.0
sg4
g5
sg6
I0
sg7
F37172.0
sg8
I00
sg9
g10
sg11
S'sally.beck@enron.com'
p132
sg13
g14
sg15
g16
sg17
I0
sg18
F2639.0
sg19
F4343.0
sg20
F566.0
sg21
I0
sg22
F700000.0
sg23
I0
sg24
F126027.0
sg25
I0
sg26
F126027.0
sg27
F231330.0
sg28
I1
sg29
F969068.0
sg30
I0
sg31
I1
sg32
I1
sg33
I0
ssS'HAUG DAVID L'
p133
(dp134
g3
F573.0
sg4
g5
sg6
I0
sg7
F475.0
sg8
I00
sg9
g10
sg11
S'david.haug@enron.com'
p135
sg13
g14
sg15
g16
sg17
I0
sg18
F471.0
sg19
F19.0
sg20
g47
sg21
I0
sg22
g48
sg23
I0
sg24
F2217299.0
sg25
I0
sg26
F2217299.0
sg27
g49
sg28
I0
sg29
F475.0
sg30
I0
sg31
I0
sg32
I0
sg33
I0
ssS'ECHOLS JOHN B'
p136
(dp137
g3
g36
sg4
g5
sg6
I0
sg7
F21530.0
sg8
I00
sg9
F2234774.0
sg11
S'john.echols@enron.com'
p138
sg13
g14
sg15
F601438.0
sg17
I0
sg18
g38
sg19
g39
sg20
F53775.0
sg21
I0
sg22
F200000.0
sg23
I0
sg24
F1008941.0
sg25
I0
sg26
F407503.0
sg27
F182245.0
sg28
I0
sg29
F2692324.0
sg30
I0
sg31
I0
sg32
I0
sg33
I0
ssS'MENDELSOHN JOHN'
p139
(dp140
g3
g36
sg4
g5
sg6
I0
sg7
F148.0
sg8
I00
sg9
g10
sg11
g37
sg13
F-103750.0
sg15
g16
sg17
I0
sg18
g38
sg19
g39
sg20
g47
sg21
I0
sg22
g48
sg23
I0
sg24
g108
sg25
I0
sg26
g72
sg27
g49
sg28
I0
sg29
F148.0
sg30
I0
sg31
I0
sg32
I0
sg33
I0
ssS'HICKERSON GARY J'
p141
(dp142
g3
F1320.0
sg4
g5
sg6
I1
sg7
F98849.0
sg8
I00
sg9
F69223.0
sg11
S'gary.hickerson@enron.com'
p143
sg13
g14
sg15
g16
sg17
I0
sg18
F900.0
sg19
F27.0
sg20
F1936.0
sg21
I0
sg22
F1700000.0
sg23
I0
sg24
F441096.0
sg25
I0
sg26
F441096.0
sg27
F211788.0
sg28
I1
sg29
F2081796.0
sg30
I0
sg31
I2
sg32
I0
sg33
I1
ssS'CLINE KENNETH W'
p144
(dp145
g3
g36
sg4
g5
sg6
I0
sg7
g45
sg8
I00
sg9
g10
sg11
g37
sg13
g14
sg15
g16
sg17
I0
sg18
g38
sg19
g39
sg20
g47
sg21
I0
sg22
g48
sg23
I0
sg24
F189518.0
sg25
I0
sg26
F662086.0
sg27
g49
sg28
I0
sg29
g50
sg30
I0
sg31
I0
sg32
I0
sg33
I0
ssS'LEWIS RICHARD'
p146
(dp147
g3
F952.0
sg4
g5
sg6
I0
sg7
g45
sg8
I00
sg9
g10
sg11
S'richard.lewis@enron.com'
p148
sg13
g14
sg15
F850477.0
sg17
I0
sg18
F739.0
sg19
F26.0
sg20
g47
sg21
I0
sg22
g48
sg23
I1
sg24
F850477.0
sg25
I0
sg26
g72
sg27
g49
sg28
I0
sg29
g50
sg30
I0
sg31
I0
sg32
I0
sg33
I1
ssS'HAYES ROBERT E'
p149
(dp150
g3
F504.0
sg4
F7961.0
sg6
I0
sg7
g45
sg8
I00
sg9
g10
sg11
S'robert.hayes@enron.com'
p151
sg13
g14
sg15
g16
sg17
I0
sg18
F50.0
sg19
F12.0
sg20
g47
sg21
I0
sg22
g48
sg23
I0
sg24
F151418.0
sg25
I0
sg26
F151418.0
sg27
g49
sg28
I0
sg29
F7961.0
sg30
I0
sg31
I0
sg32
I0
sg33
I1
ssS'KOPPER MICHAEL J'
p152
(dp153
g3
g36
sg4
g5
sg6
I0
sg7
F118134.0
sg8
I01
sg9
F602671.0
sg11
S'michael.kopper@enron.com'
p154
sg13
g14
sg15
g16
sg17
I0
sg18
g38
sg19
g39
sg20
F907502.0
sg21
I0
sg22
F800000.0
sg23
I0
sg24
F985032.0
sg25
I0
sg26
F985032.0
sg27
F224305.0
sg28
I0
sg29
F2652612.0
sg30
I0
sg31
I0
sg32
I0
sg33
I0
ssS'LEFF DANIEL P'
p155
(dp156
g3
F2822.0
sg4
g5
sg6
I0
sg7
g45
sg8
I00
sg9
F1387399.0
sg11
S'dan.leff@enron.com'
p157
sg13
g14
sg15
g16
sg17
I0
sg18
F2672.0
sg19
F63.0
sg20
F3083.0
sg21
I0
sg22
F1000000.0
sg23
I0
sg24
F360528.0
sg25
I0
sg26
F360528.0
sg27
F273746.0
sg28
I0
sg29
F2664228.0
sg30
I1
sg31
I0
sg32
I0
sg33
I0
ssS'LAVORATO JOHN J'
p158
(dp159
g3
F7259.0
sg4
g5
sg6
I0
sg7
F49537.0
sg8
I00
sg9
F2035380.0
sg11
S'john.lavorato@enron.com'
p160
sg13
g14
sg15
F4158995.0
sg17
I0
sg18
F3962.0
sg19
F2585.0
sg20
F1552.0
sg21
I0
sg22
F8000000.0
sg23
I3
sg24
F5167144.0
sg25
I1
sg26
F1008149.0
sg27
F339288.0
sg28
I0
sg29
F10425757.0
sg30
I0
sg31
I0
sg32
I0
sg33
I0
ssS'BERBERIAN DAVID'
p161
(dp162
g3
g36
sg4
g5
sg6
I0
sg7
F11892.0
sg8
I00
sg9
g10
sg11
S'david.berberian@enron.com'
p163
sg13
g14
sg15
F1624396.0
sg17
I0
sg18
g38
sg19
g39
sg20
g47
sg21
I0
sg22
g48
sg23
I0
sg24
F2493616.0
sg25
I0
sg26
F869220.0
sg27
F216582.0
sg28
I0
sg29
F228474.0
sg30
I0
sg31
I0
sg32
I0
sg33
I0
ssS'DETMERING TIMOTHY J'
p164
(dp165
g3
g36
sg4
F875307.0
sg6
I0
sg7
F52255.0
sg8
I00
sg9
F415657.0
sg11
S'timothy.detmering@enron.com'
p166
sg13
F-775241.0
sg15
F2027865.0
sg17
I0
sg18
g38
sg19
g39
sg20
F1105.0
sg21
I0
sg22
F425000.0
sg23
I0
sg24
F2027865.0
sg25
I0
sg26
F315068.0
sg27
F210500.0
sg28
I0
sg29
F1204583.0
sg30
I0
sg31
I0
sg32
I0
sg33
I0
ssS'WAKEHAM JOHN'
p167
(dp168
g3
g36
sg4
g5
sg6
I0
sg7
F103773.0
sg8
I00
sg9
g10
sg11
g37
sg13
g14
sg15
g16
sg17
I0
sg18
g38
sg19
g39
sg20
g47
sg21
I0
sg22
g48
sg23
I0
sg24
g108
sg25
I0
sg26
g72
sg27
g49
sg28
I0
sg29
F213071.0
sg30
I0
sg31
I0
sg32
I0
sg33
I0
ssS'POWERS WILLIAM'
p169
(dp170
g3
F653.0
sg4
g5
sg6
I0
sg7
g45
sg8
I00
sg9
g10
sg11
S'ken.powers@enron.com'
p171
sg13
F-17500.0
sg15
g16
sg17
I0
sg18
F12.0
sg19
F26.0
sg20
g47
sg21
I0
sg22
g48
sg23
I0
sg24
g108
sg25
I0
sg26
g72
sg27
g49
sg28
I0
sg29
g50
sg30
I0
sg31
I0
sg32
I0
sg33
I0
ssS'GOLD JOSEPH'
p172
(dp173
g3
g36
sg4
g5
sg6
I0
sg7
g45
sg8
I00
sg9
F304805.0
sg11
S'joe.gold@enron.com'
p174
sg13
g14
sg15
F436515.0
sg17
I0
sg18
g38
sg19
g39
sg20
F819288.0
sg21
I0
sg22
F750000.0
sg23
I0
sg24
F877611.0
sg25
I0
sg26
F441096.0
sg27
F272880.0
sg28
I0
sg29
F2146973.0
sg30
I0
sg31
I0
sg32
I0
sg33
I0
ssS'BANNANTINE JAMES M'
p175
(dp176
g3
F566.0
sg4
g5
sg6
I0
sg7
F56301.0
sg8
I00
sg9
g10
sg11
S'james.bannantine@enron.com'
p177
sg13
F-5104.0
sg15
F4046157.0
sg17
I0
sg18
F465.0
sg19
F29.0
sg20
F864523.0
sg21
I0
sg22
g48
sg23
I0
sg24
F5243487.0
sg25
I0
sg26
F1757552.0
sg27
F477.0
sg28
I0
sg29
F916197.0
sg30
I0
sg31
I0
sg32
I0
sg33
I0
ssS'DUNCAN JOHN H'
p178
(dp179
g3
g36
sg4
g5
sg6
I0
sg7
g45
sg8
I00
sg9
g10
sg11
g37
sg13
F-25000.0
sg15
F371750.0
sg17
I0
sg18
g38
sg19
g39
sg20
g47
sg21
I0
sg22
g48
sg23
I0
sg24
F371750.0
sg25
I0
sg26
g72
sg27
g49
sg28
I0
sg29
F77492.0
sg30
I0
sg31
I0
sg32
I0
sg33
I0
ssS'SHAPIRO RICHARD S'
p180
(dp181
g3
F15149.0
sg4
g5
sg6
I0
sg7
F137767.0
sg8
I00
sg9
g10
sg11
S'richard.shapiro@enron.com'
p182
sg13
g14
sg15
F607837.0
sg17
I1
sg18
F4527.0
sg19
F1215.0
sg20
F705.0
sg21
I0
sg22
F650000.0
sg23
I0
sg24
F987001.0
sg25
I0
sg26
F379164.0
sg27
F269076.0
sg28
I1
sg29
F1057548.0
sg30
I1
sg31
I0
sg32
I0
sg33
I0
ssS'SHERRIFF JOHN R'
p183
(dp184
g3
F3187.0
sg4
g5
sg6
I0
sg7
g45
sg8
I00
sg9
F554422.0
sg11
S'john.sherriff@enron.com'
p185
sg13
g14
sg15
F1835558.0
sg17
I1
sg18
F2103.0
sg19
F92.0
sg20
F1852186.0
sg21
I0
sg22
F1500000.0
sg23
I0
sg24
F3128982.0
sg25
I1
sg26
F1293424.0
sg27
F428780.0
sg28
I0
sg29
F4335388.0
sg30
I0
sg31
I0
sg32
I0
sg33
I0
ssS'SHELBY REX'
p186
(dp187
g3
F225.0
sg4
g5
sg6
I0
sg7
F22884.0
sg8
I01
sg9
g10
sg11
S'rex.shelby@enron.com'
p188
sg13
F-4167.0
sg15
F1624396.0
sg17
I0
sg18
F91.0
sg19
F39.0
sg20
F1573324.0
sg21
I0
sg22
F200000.0
sg23
I0
sg24
F2493616.0
sg25
I0
sg26
F869220.0
sg27
F211844.0
sg28
I0
sg29
F2003885.0
sg30
I0
sg31
I1
sg32
I0
sg33
I0
ssS'LEMAISTRE CHARLES'
p189
(dp190
g3
g36
sg4
g5
sg6
I0
sg7
g45
sg8
I00
sg9
g10
sg11
g37
sg13
F-25000.0
sg15
F412878.0
sg17
I0
sg18
g38
sg19
g39
sg20
g47
sg21
I0
sg22
g48
sg23
I0
sg24
F412878.0
sg25
I0
sg26
g72
sg27
g49
sg28
I0
sg29
F87492.0
sg30
I0
sg31
I0
sg32
I0
sg33
I0
ssS'DEFFNER JOSEPH M'
p191
(dp192
g3
F714.0
sg4
g5
sg6
I0
sg7
F41626.0
sg8
I00
sg9
F335349.0
sg11
S'joseph.deffner@enron.com'
p193
sg13
g14
sg15
F17378.0
sg17
I1
sg18
F552.0
sg19
F74.0
sg20
F25553.0
sg21
I0
sg22
F600000.0
sg23
I0
sg24
F159211.0
sg25
I0
sg26
F141833.0
sg27
F206121.0
sg28
I0
sg29
F1208649.0
sg30
I0
sg31
I0
sg32
I0
sg33
I0
ssS'KISHKILL JOSEPH G'
p194
(dp195
g3
g36
sg4
g5
sg6
I0
sg7
F116335.0
sg8
I00
sg9
g10
sg11
S'joe.kishkill@enron.com'
p196
sg13
F-51042.0
sg15
g16
sg17
I0
sg18
g38
sg19
g39
sg20
F465357.0
sg21
I0
sg22
g48
sg23
I0
sg24
F1034346.0
sg25
I0
sg26
F1034346.0
sg27
F174246.0
sg28
I0
sg29
F704896.0
sg30
I0
sg31
I0
sg32
I0
sg33
I0
ssS'WHALLEY LAWRENCE G'
p197
(dp198
g3
F6019.0
sg4
g5
sg6
I0
sg7
F57838.0
sg8
I00
sg9
F808346.0
sg11
S'greg.whalley@enron.com'
p199
sg13
g14
sg15
F3282960.0
sg17
I0
sg18
F3920.0
sg19
F556.0
sg20
F301026.0
sg21
I0
sg22
F3000000.0
sg23
I1
sg24
F6079137.0
sg25
I1
sg26
F2796177.0
sg27
F510364.0
sg28
I0
sg29
F4677574.0
sg30
I0
sg31
I0
sg32
I0
sg33
I0
ssS'PIRO JIM'
p200
(dp201
g3
F58.0
sg4
g5
sg6
I0
sg7
g45
sg8
I00
sg9
g10
sg11
S'jim.piro@enron.com'
p202
sg13
g14
sg15
g16
sg17
I0
sg18
F3.0
sg19
F16.0
sg20
g47
sg21
I0
sg22
g48
sg23
I0
sg24
F47304.0
sg25
I0
sg26
F47304.0
sg27
g49
sg28
I0
sg29
g50
sg30
I0
sg31
I0
sg32
I0
sg33
I0
ssS'MCCONNELL MICHAEL S'
p203
(dp204
g3
F3329.0
sg4
g5
sg6
I0
sg7
F81364.0
sg8
I00
sg9
F554422.0
sg11
S'mike.mcconnell@enron.com'
p205
sg13
g14
sg15
F1623010.0
sg17
I0
sg18
F2189.0
sg19
F2742.0
sg20
F540.0
sg21
I0
sg22
F1100000.0
sg23
I1
sg24
F3101279.0
sg25
I0
sg26
F1478269.0
sg27
F365038.0
sg28
I0
sg29
F2101364.0
sg30
I0
sg31
I0
sg32
I1
sg33
I0
ssS'DELAINEY DAVID W'
p206
(dp207
g3
F3093.0
sg4
g5
sg6
I1
sg7
F86174.0
sg8
I01
sg9
F1294981.0
sg11
S'david.delainey@enron.com'
p208
sg13
g14
sg15
F2291113.0
sg17
I0
sg18
F2097.0
sg19
F3069.0
sg20
F1661.0
sg21
I0
sg22
F3000000.0
sg23
I0
sg24
F3614261.0
sg25
I0
sg26
F1323148.0
sg27
F365163.0
sg28
I1
sg29
F4747979.0
sg30
I0
sg31
I0
sg32
I0
sg33
I0
ssS'SULLIVAN-SHAKLOVITZ COLLEEN'
p209
(dp210
g3
g36
sg4
F181993.0
sg6
I0
sg7
g45
sg8
I00
sg9
F554422.0
sg11
g37
sg13
g14
sg15
F1362375.0
sg17
I0
sg18
g38
sg19
g39
sg20
F162.0
sg21
I0
sg22
F100000.0
sg23
I0
sg24
F1362375.0
sg25
I0
sg26
g72
sg27
F162779.0
sg28
I0
sg29
F999356.0
sg30
I0
sg31
I0
sg32
I0
sg33
I0
ssS'WROBEL BRUCE'
p211
(dp212
g3
g36
sg4
g5
sg6
I0
sg7
g45
sg8
I00
sg9
g10
sg11
g37
sg13
g14
sg15
F139130.0
sg17
I0
sg18
g38
sg19
g39
sg20
g47
sg21
I0
sg22
g48
sg23
I0
sg24
F139130.0
sg25
I0
sg26
g72
sg27
g49
sg28
I0
sg29
g50
sg30
I0
sg31
I0
sg32
I0
sg33
I0
ssS'LINDHOLM TOD A'
p213
(dp214
g3
g36
sg4
F204075.0
sg6
I0
sg7
F57727.0
sg8
I00
sg9
F175000.0
sg11
S'tod.lindholm@enron.com'
p215
sg13
g14
sg15
F2549361.0
sg17
I0
sg18
g38
sg19
g39
sg20
F2630.0
sg21
I0
sg22
F200000.0
sg23
I0
sg24
F3064208.0
sg25
I0
sg26
F514847.0
sg27
F236457.0
sg28
I0
sg29
F875889.0
sg30
I0
sg31
I0
sg32
I0
sg33
I0
ssS'MEYER JEROME J'
p216
(dp217
g3
g36
sg4
g5
sg6
I0
sg7
F2151.0
sg8
I00
sg9
g10
sg11
g37
sg13
F-38346.0
sg15
g16
sg17
I0
sg18
g38
sg19
g39
sg20
g47
sg21
I0
sg22
g48
sg23
I0
sg24
g108
sg25
I0
sg26
g72
sg27
g49
sg28
I0
sg29
F2151.0
sg30
I0
sg31
I0
sg32
I0
sg33
I0
ssS'LAY KENNETH L'
p218
(dp219
g3
F4273.0
sg4
F202911.0
sg6
I0
sg7
F99832.0
sg8
I01
sg9
F3600000.0
sg11
S'kenneth.lay@enron.com'
p220
sg13
F-300000.0
sg15
F34348384.0
sg17
I1
sg18
F2411.0
sg19
F36.0
sg20
F10359729.0
sg21
I0
sg22
F7000000.0
sg23
I0
sg24
F49110078.0
sg25
I1
sg26
F14761694.0
sg27
F1072321.0
sg28
I0
sg29
F103559793.0
sg30
I0
sg31
I0
sg32
I0
sg33
I1
ssS'BUTTS ROBERT H'
p221
(dp222
g3
g36
sg4
g5
sg6
I0
sg7
F9410.0
sg8
I00
sg9
F175000.0
sg11
S'bob.butts@enron.com'
p223
sg13
F-75000.0
sg15
g16
sg17
I0
sg18
g38
sg19
g39
sg20
F150656.0
sg21
I0
sg22
F750000.0
sg23
I0
sg24
F417619.0
sg25
I0
sg26
F417619.0
sg27
F261516.0
sg28
I0
sg29
F1271582.0
sg30
I0
sg31
I0
sg32
I0
sg33
I0
ssS'OLSON CINDY K'
p224
(dp225
g3
F1184.0
sg4
F77716.0
sg6
I0
sg7
F63791.0
sg8
I00
sg9
F100000.0
sg11
S'cindy.olson@enron.com'
p226
sg13
g14
sg15
F1637034.0
sg17
I0
sg18
F856.0
sg19
F52.0
sg20
F972.0
sg21
I1
sg22
F750000.0
sg23
I0
sg24
F2606763.0
sg25
I0
sg26
F969729.0
sg27
F329078.0
sg28
I0
sg29
F1321557.0
sg30
I0
sg31
I0
sg32
I1
sg33
I0
ssS'MCDONALD REBECCA'
p227
(dp228
g3
F894.0
sg4
g5
sg6
I0
sg7
g45
sg8
I00
sg9
g10
sg11
S'rebecca.mcdonald@enron.com'
p229
sg13
g14
sg15
F757301.0
sg17
I0
sg18
F720.0
sg19
F13.0
sg20
g47
sg21
I0
sg22
g48
sg23
I1
sg24
F1691366.0
sg25
I0
sg26
F934065.0
sg27
g49
sg28
I0
sg29
g50
sg30
I1
sg31
I1
sg32
I0
sg33
I0
ssS'CUMBERLAND MICHAEL S'
p230
(dp231
g3
g36
sg4
g5
sg6
I0
sg7
F22344.0
sg8
I00
sg9
F275000.0
sg11
g37
sg13
g14
sg15
g16
sg17
I0
sg18
g38
sg19
g39
sg20
F713.0
sg21
I0
sg22
F325000.0
sg23
I0
sg24
F207940.0
sg25
I0
sg26
F207940.0
sg27
F184899.0
sg28
I0
sg29
F807956.0
sg30
I0
sg31
I0
sg32
I0
sg33
I0
ssS'GAHN ROBERT S'
p232
(dp233
g3
g36
sg4
F73122.0
sg6
I0
sg7
F50080.0
sg8
I00
sg9
g10
sg11
g37
sg13
F-1042.0
sg15
F83237.0
sg17
I0
sg18
g38
sg19
g39
sg20
F76547.0
sg21
I0
sg22
F509870.0
sg23
I0
sg24
F318607.0
sg25
I0
sg26
F235370.0
sg27
F192008.0
sg28
I0
sg29
F900585.0
sg30
I0
sg31
I0
sg32
I0
sg33
I0
ssS'BADUM JAMES P'
p234
(dp235
g3
g36
sg4
F178980.0
sg6
I0
sg7
F3486.0
sg8
I00
sg9
g10
sg11
g37
sg13
g14
sg15
F257817.0
sg17
I0
sg18
g38
sg19
g39
sg20
g47
sg21
I0
sg22
g48
sg23
I0
sg24
F257817.0
sg25
I0
sg26
g72
sg27
g49
sg28
I0
sg29
F182466.0
sg30
I0
sg31
I0
sg32
I0
sg33
I0
ssS'HERMANN ROBERT J'
p236
(dp237
g3
g36
sg4
g5
sg6
I0
sg7
F48357.0
sg8
I00
sg9
F150000.0
sg11
S'robert.hermann@enron.com'
p238
sg13
F-280000.0
sg15
F187500.0
sg17
I0
sg18
g38
sg19
g39
sg20
F416441.0
sg21
I0
sg22
F700000.0
sg23
I0
sg24
F668132.0
sg25
I0
sg26
F480632.0
sg27
F262663.0
sg28
I0
sg29
F1297461.0
sg30
I0
sg31
I0
sg32
I0
sg33
I0
ssS'FALLON JAMES B'
p239
(dp240
g3
F1755.0
sg4
g5
sg6
I0
sg7
F95924.0
sg8
I00
sg9
F374347.0
sg11
S'jim.fallon@enron.com'
p241
sg13
g14
sg15
F940257.0
sg17
I0
sg18
F1604.0
sg19
F75.0
sg20
F401481.0
sg21
I0
sg22
F2500000.0
sg23
I0
sg24
F2332399.0
sg25
I1
sg26
F1392142.0
sg27
F304588.0
sg28
I0
sg29
F3676340.0
sg30
I0
sg31
I0
sg32
I1
sg33
I0
ssS'GATHMANN WILLIAM D'
p242
(dp243
g3
g36
sg4
g5
sg6
I0
sg7
g45
sg8
I00
sg9
g10
sg11
g37
sg13
g14
sg15
F1753766.0
sg17
I0
sg18
g38
sg19
g39
sg20
g47
sg21
I0
sg22
g48
sg23
I0
sg24
F1945360.0
sg25
I0
sg26
F264013.0
sg27
g49
sg28
I0
sg29
g50
sg30
I0
sg31
I0
sg32
I0
sg33
I0
ssS'HORTON STANLEY C'
p244
(dp245
g3
F2350.0
sg4
F3131860.0
sg6
I0
sg7
g45
sg8
I00
sg9
g10
sg11
S'stanley.horton@enron.com'
p246
sg13
g14
sg15
F5210569.0
sg17
I0
sg18
F1074.0
sg19
F1073.0
sg20
g47
sg21
I0
sg22
g48
sg23
I0
sg24
F7256648.0
sg25
I0
sg26
F2046079.0
sg27
g49
sg28
I0
sg29
F3131860.0
sg30
I0
sg31
I1
sg32
I0
sg33
I0
ssS'BOWEN JR RAYMOND M'
p247
(dp248
g3
F1858.0
sg4
g5
sg6
I1
sg7
F65907.0
sg8
I01
sg9
F974293.0
sg11
S'raymond.bowen@enron.com'
p249
sg13
F-833.0
sg15
g16
sg17
I0
sg18
F1593.0
sg19
F27.0
sg20
F1621.0
sg21
I2
sg22
F1350000.0
sg23
I0
sg24
F252055.0
sg25
I0
sg26
F252055.0
sg27
F278601.0
sg28
I0
sg29
F2669589.0
sg30
I1
sg31
I0
sg32
I0
sg33
I1
ssS'GILLIS JOHN'
p250
(dp251
g3
g36
sg4
g5
sg6
I0
sg7
g45
sg8
I00
sg9
g10
sg11
g37
sg13
g14
sg15
F9803.0
sg17
I0
sg18
g38
sg19
g39
sg20
g47
sg21
I0
sg22
g48
sg23
I0
sg24
F85641.0
sg25
I0
sg26
F75838.0
sg27
g49
sg28
I0
sg29
g50
sg30
I0
sg31
I0
sg32
I0
sg33
I0
ssS'FITZGERALD JAY L'
p252
(dp253
g3
F936.0
sg4
g5
sg6
I0
sg7
F23870.0
sg8
I00
sg9
F556416.0
sg11
S'jay.fitzgerald@enron.com'
p254
sg13
g14
sg15
F664461.0
sg17
I2
sg18
F723.0
sg19
F16.0
sg20
F285414.0
sg21
I0
sg22
F350000.0
sg23
I2
sg24
F1621236.0
sg25
I0
sg26
F956775.0
sg27
F199157.0
sg28
I0
sg29
F1414857.0
sg30
I0
sg31
I0
sg32
I0
sg33
I0
ssS'MORAN MICHAEL P'
p255
(dp256
g3
F672.0
sg4
g5
sg6
I0
sg7
g45
sg8
I00
sg9
g10
sg11
S'michael.moran@enron.com'
p257
sg13
g14
sg15
F59539.0
sg17
I0
sg18
F127.0
sg19
F19.0
sg20
g47
sg21
I0
sg22
g48
sg23
I0
sg24
F221141.0
sg25
I0
sg26
F161602.0
sg27
g49
sg28
I0
sg29
g50
sg30
I0
sg31
I1
sg32
I0
sg33
I0
ssS'REDMOND BRIAN L'
p258
(dp259
g3
F1671.0
sg4
g5
sg6
I1
sg7
F14689.0
sg8
I00
sg9
g10
sg11
S'brian.redmond@enron.com'
p260
sg13
g14
sg15
F7509039.0
sg17
I0
sg18
F1063.0
sg19
F221.0
sg20
g47
sg21
I0
sg22
g48
sg23
I0
sg24
F7890324.0
sg25
I0
sg26
F381285.0
sg27
F96840.0
sg28
I1
sg29
F111529.0
sg30
I2
sg31
I1
sg32
I0
sg33
I0
ssS'BAZELIDES PHILIP J'
p261
(dp262
g3
g36
sg4
F684694.0
sg6
I0
sg7
g45
sg8
I00
sg9
F93750.0
sg11
g37
sg13
g14
sg15
F1599641.0
sg17
I0
sg18
g38
sg19
g39
sg20
F874.0
sg21
I0
sg22
g48
sg23
I0
sg24
F1599641.0
sg25
I0
sg26
g72
sg27
F80818.0
sg28
I0
sg29
F860136.0
sg30
I0
sg31
I0
sg32
I0
sg33
I0
ssS'BELDEN TIMOTHY N'
p263
(dp264
g3
F7991.0
sg4
F2144013.0
sg6
I0
sg7
F17355.0
sg8
I01
sg9
g10
sg11
S'tim.belden@enron.com'
p265
sg13
F-2334434.0
sg15
F953136.0
sg17
I0
sg18
F5521.0
sg19
F484.0
sg20
F210698.0
sg21
I0
sg22
F5249999.0
sg23
I0
sg24
F1110705.0
sg25
I0
sg26
F157569.0
sg27
F213999.0
sg28
I0
sg29
F5501630.0
sg30
I0
sg31
I0
sg32
I0
sg33
I0
ssS'DIMICHELE RICHARD G'
p266
(dp267
g3
g36
sg4
g5
sg6
I0
sg7
F35812.0
sg8
I00
sg9
F694862.0
sg11
S'richard.dimichele@enron.com'
p268
sg13
g14
sg15
F8191755.0
sg17
I0
sg18
g38
sg19
g39
sg20
F374689.0
sg21
I0
sg22
F1000000.0
sg23
I0
sg24
F8317782.0
sg25
I0
sg26
F126027.0
sg27
F262788.0
sg28
I0
sg29
F2368151.0
sg30
I0
sg31
I0
sg32
I0
sg33
I0
ssS'DURAN WILLIAM D'
p269
(dp270
g3
F904.0
sg4
g5
sg6
I0
sg7
F25785.0
sg8
I00
sg9
F1105218.0
sg11
S'w.duran@enron.com'
p271
sg13
g14
sg15
F1451869.0
sg17
I1
sg18
F599.0
sg19
F12.0
sg20
F1568.0
sg21
I0
sg22
F750000.0
sg23
I0
sg24
F1640910.0
sg25
I0
sg26
F189041.0
sg27
F210692.0
sg28
I1
sg29
F2093263.0
sg30
I0
sg31
I0
sg32
I0
sg33
I0
ssS'THORN TERENCE H'
p272
(dp273
g3
F266.0
sg4
F16586.0
sg6
I0
sg7
F46145.0
sg8
I00
sg9
F200000.0
sg11
S'terence.thorn@enron.com'
p274
sg13
g14
sg15
F4452476.0
sg17
I0
sg18
F73.0
sg19
F41.0
sg20
F426629.0
sg21
I0
sg22
g48
sg23
I0
sg24
F4817796.0
sg25
I0
sg26
F365320.0
sg27
F222093.0
sg28
I0
sg29
F911453.0
sg30
I1
sg31
I1
sg32
I0
sg33
I0
ssS'FASTOW ANDREW S'
p275
(dp276
g3
g36
sg4
g5
sg6
I0
sg7
F55921.0
sg8
I01
sg9
F1736055.0
sg11
S'andrew.fastow@enron.com'
p277
sg13
F-1386055.0
sg15
g16
sg17
I0
sg18
g38
sg19
g39
sg20
F277464.0
sg21
I0
sg22
F1300000.0
sg23
I0
sg24
F1794412.0
sg25
I0
sg26
F1794412.0
sg27
F440698.0
sg28
I0
sg29
F2424083.0
sg30
I0
sg31
I0
sg32
I0
sg33
I0
ssS'FOY JOE'
p278
(dp279
g3
F57.0
sg4
F181755.0
sg6
I0
sg7
g45
sg8
I00
sg9
g10
sg11
S'tracy.foy@enron.com'
p280
sg13
g14
sg15
F343434.0
sg17
I0
sg18
F2.0
sg19
F13.0
sg20
g47
sg21
I1
sg22
g48
sg23
I0
sg24
F343434.0
sg25
I0
sg26
g72
sg27
g49
sg28
I0
sg29
F181755.0
sg30
I0
sg31
I0
sg32
I0
sg33
I0
ssS'CALGER CHRISTOPHER F'
p281
(dp282
g3
F2598.0
sg4
g5
sg6
I0
sg7
F35818.0
sg8
I01
sg9
F375304.0
sg11
S'christopher.calger@enron.com'
p283
sg13
F-262500.0
sg15
g16
sg17
I0
sg18
F2188.0
sg19
F144.0
sg20
F486.0
sg21
I0
sg22
F1250000.0
sg23
I2
sg24
F126027.0
sg25
I0
sg26
F126027.0
sg27
F240189.0
sg28
I0
sg29
F1639297.0
sg30
I1
sg31
I1
sg32
I0
sg33
I0
ssS'RICE KENNETH D'
p284
(dp285
g3
F905.0
sg4
g5
sg6
I0
sg7
F46950.0
sg8
I01
sg9
F1617011.0
sg11
S'ken.rice@enron.com'
p286
sg13
F-3504386.0
sg15
F19794175.0
sg17
I0
sg18
F864.0
sg19
F18.0
sg20
F174839.0
sg21
I2
sg22
F1750000.0
sg23
I1
sg24
F22542539.0
sg25
I0
sg26
F2748364.0
sg27
F420636.0
sg28
I0
sg29
F505050.0
sg30
I0
sg31
I0
sg32
I1
sg33
I0
ssS'KAMINSKI WINCENTY J'
p287
(dp288
g3
F4607.0
sg4
g5
sg6
I0
sg7
F83585.0
sg8
I00
sg9
F323466.0
sg11
S'vince.kaminski@enron.com'
p289
sg13
g14
sg15
F850010.0
sg17
I0
sg18
F583.0
sg19
F14368.0
sg20
F4669.0
sg21
I0
sg22
F400000.0
sg23
I0
sg24
F976037.0
sg25
I0
sg26
F126027.0
sg27
F275101.0
sg28
I0
sg29
F1086821.0
sg30
I0
sg31
I1
sg32
I0
sg33
I0
ssS'COX DAVID'
p290
(dp291
g3
F102.0
sg4
g5
sg6
I0
sg7
F27861.0
sg8
I00
sg9
g10
sg11
S'chip.cox@enron.com'
p292
sg13
F-41250.0
sg15
F117551.0
sg17
I0
sg18
F71.0
sg19
F33.0
sg20
F494.0
sg21
I0
sg22
F800000.0
sg23
I0
sg24
F495633.0
sg25
I0
sg26
F378082.0
sg27
F314288.0
sg28
I0
sg29
F1101393.0
sg30
I0
sg31
I0
sg32
I0
sg33
I0
ssS'OVERDYKE JR JERE C'
p293
(dp294
g3
g36
sg4
g5
sg6
I0
sg7
F18834.0
sg8
I00
sg9
F135836.0
sg11
S'jere.overdyke@enron.com'
p295
sg13
g14
sg15
F5266578.0
sg17
I0
sg18
g38
sg19
g39
sg20
F176.0
sg21
I0
sg22
g48
sg23
I0
sg24
F7307594.0
sg25
I0
sg26
F2041016.0
sg27
F94941.0
sg28
I0
sg29
F249787.0
sg30
I0
sg31
I0
sg32
I0
sg33
I0
ssS'PEREIRA PAULO V. FERRAZ'
p296
(dp297
g3
g36
sg4
g5
sg6
I0
sg7
F27942.0
sg8
I00
sg9
g10
sg11
g37
sg13
F-101250.0
sg15
g16
sg17
I0
sg18
g38
sg19
g39
sg20
g47
sg21
I0
sg22
g48
sg23
I0
sg24
g108
sg25
I0
sg26
g72
sg27
g49
sg28
I0
sg29
F27942.0
sg30
I0
sg31
I0
sg32
I0
sg33
I0
ssS'STABLER FRANK'
p298
(dp299
g3
g36
sg4
g5
sg6
I0
sg7
F16514.0
sg8
I00
sg9
g10
sg11
S'frank.stabler@enron.com'
p300
sg13
g14
sg15
g16
sg17
I0
sg18
g38
sg19
g39
sg20
F356071.0
sg21
I0
sg22
F500000.0
sg23
I0
sg24
F511734.0
sg25
I0
sg26
F511734.0
sg27
F239502.0
sg28
I0
sg29
F1112087.0
sg30
I0
sg31
I0
sg32
I0
sg33
I0
ssS'SKILLING JEFFREY K'
p301
(dp302
g3
F3627.0
sg4
g5
sg6
I0
sg7
F29336.0
sg8
I01
sg9
F1920000.0
sg11
S'jeff.skilling@enron.com'
p303
sg13
g14
sg15
F19250000.0
sg17
I0
sg18
F2042.0
sg19
F108.0
sg20
F22122.0
sg21
I0
sg22
F5600000.0
sg23
I0
sg24
F26093672.0
sg25
I1
sg26
F6843672.0
sg27
F1111258.0
sg28
I0
sg29
F8682716.0
sg30
I0
sg31
I0
sg32
I0
sg33
I0
ssS'BLAKE JR. NORMAN P'
p304
(dp305
g3
g36
sg4
g5
sg6
I0
sg7
F1279.0
sg8
I00
sg9
g10
sg11
g37
sg13
F-113784.0
sg15
g16
sg17
I0
sg18
g38
sg19
g39
sg20
g47
sg21
I0
sg22
g48
sg23
I0
sg24
g108
sg25
I0
sg26
g72
sg27
g49
sg28
I0
sg29
F1279.0
sg30
I0
sg31
I0
sg32
I0
sg33
I0
ssS'SHERRICK JEFFREY B'
p306
(dp307
g3
F613.0
sg4
g5
sg6
I0
sg7
g45
sg8
I00
sg9
g10
sg11
S'jeffrey.sherrick@enron.com'
p308
sg13
g14
sg15
F1426469.0
sg17
I1
sg18
F583.0
sg19
F25.0
sg20
g47
sg21
I0
sg22
g48
sg23
I1
sg24
F1832468.0
sg25
I0
sg26
F405999.0
sg27
g49
sg28
I0
sg29
g50
sg30
I0
sg31
I0
sg32
I0
sg33
I0
ssS'PRENTICE JAMES'
p309
(dp310
g3
g36
sg4
F564348.0
sg6
I0
sg7
g45
sg8
I00
sg9
g10
sg11
S'james.prentice@enron.com'
p311
sg13
g14
sg15
F886231.0
sg17
I0
sg18
g38
sg19
g39
sg20
g47
sg21
I0
sg22
g48
sg23
I0
sg24
F1095040.0
sg25
I0
sg26
F208809.0
sg27
g49
sg28
I0
sg29
F564348.0
sg30
I0
sg31
I0
sg32
I0
sg33
I0
ssS'GRAY RODNEY'
p312
(dp313
g3
g36
sg4
F93585.0
sg6
I0
sg7
g45
sg8
I00
sg9
F365625.0
sg11
g37
sg13
g14
sg15
g16
sg17
I0
sg18
g38
sg19
g39
sg20
F680833.0
sg21
I0
sg22
g48
sg23
I0
sg24
g108
sg25
I0
sg26
g72
sg27
F6615.0
sg28
I0
sg29
F1146658.0
sg30
I0
sg31
I0
sg32
I0
sg33
I0
ssS'UMANOFF ADAM S'
p314
(dp315
g3
F111.0
sg4
g5
sg6
I0
sg7
F53122.0
sg8
I00
sg9
g10
sg11
S'adam.umanoff@enron.com'
p316
sg13
g14
sg15
g16
sg17
I0
sg18
F41.0
sg19
F18.0
sg20
g47
sg21
I0
sg22
F788750.0
sg23
I0
sg24
g108
sg25
I0
sg26
g72
sg27
F288589.0
sg28
I1
sg29
F1130461.0
sg30
I0
sg31
I0
sg32
I0
sg33
I0
ssS'KEAN STEVEN J'
p317
(dp318
g3
F12754.0
sg4
g5
sg6
I0
sg7
F41953.0
sg8
I00
sg9
F300000.0
sg11
S'steven.kean@enron.com'
p319
sg13
g14
sg15
F2022048.0
sg17
I0
sg18
F3639.0
sg19
F6759.0
sg20
F1231.0
sg21
I0
sg22
F1000000.0
sg23
I0
sg24
F6153642.0
sg25
I0
sg26
F4131594.0
sg27
F404338.0
sg28
I0
sg29
F1747522.0
sg30
I0
sg31
I0
sg32
I0
sg33
I0
ssS'FOWLER PEGGY'
p320
(dp321
g3
F517.0
sg4
g5
sg6
I0
sg7
g45
sg8
I00
sg9
g10
sg11
S'kulvinder.fowler@enron.com'
p322
sg13
g14
sg15
F1324578.0
sg17
I0
sg18
F10.0
sg19
F36.0
sg20
g47
sg21
I0
sg22
g48
sg23
I0
sg24
F1884748.0
sg25
I1
sg26
F560170.0
sg27
g49
sg28
I0
sg29
g50
sg30
I0
sg31
I0
sg32
I0
sg33
I0
ssS'WASAFF GEORGE'
p323
(dp324
g3
F400.0
sg4
F831299.0
sg6
I0
sg7
g45
sg8
I00
sg9
F200000.0
sg11
S'george.wasaff@enron.com'
p325
sg13
F-583325.0
sg15
F1668260.0
sg17
I0
sg18
F337.0
sg19
F30.0
sg20
F1425.0
sg21
I0
sg22
F325000.0
sg23
I0
sg24
F2056427.0
sg25
I0
sg26
F388167.0
sg27
F259996.0
sg28
I0
sg29
F1034395.0
sg30
I0
sg31
I0
sg32
I0
sg33
I0
ssS'WHITE JR THOMAS E'
p326
(dp327
g3
g36
sg4
g5
sg6
I0
sg7
F81353.0
sg8
I00
sg9
g10
sg11
S'thomas.white@enron.com'
p328
sg13
g14
sg15
F1297049.0
sg17
I0
sg18
g38
sg19
g39
sg20
F1085463.0
sg21
I0
sg22
F450000.0
sg23
I0
sg24
F15144123.0
sg25
I0
sg26
F13847074.0
sg27
F317543.0
sg28
I0
sg29
F1934359.0
sg30
I0
sg31
I0
sg32
I0
sg33
I0
ssS'CHRISTODOULOU DIOMEDES'
p329
(dp330
g3
g36
sg4
g5
sg6
I0
sg7
g45
sg8
I00
sg9
g10
sg11
S'diomedes.christodoulou@enron.com'
p331
sg13
g14
sg15
F5127155.0
sg17
I0
sg18
g38
sg19
g39
sg20
g47
sg21
I0
sg22
g48
sg23
I0
sg24
F6077885.0
sg25
I0
sg26
F950730.0
sg27
g49
sg28
I0
sg29
g50
sg30
I0
sg31
I0
sg32
I0
sg33
I0
ssS'ALLEN PHILLIP K'
p332
(dp333
g3
F2902.0
sg4
F2869717.0
sg6
I0
sg7
F13868.0
sg8
I00
sg9
F304805.0
sg11
S'phillip.allen@enron.com'
p334
sg13
F-3081055.0
sg15
F1729541.0
sg17
I0
sg18
F1407.0
sg19
F2195.0
sg20
F152.0
sg21
I0
sg22
F4175000.0
sg23
I0
sg24
F1729541.0
sg25
I0
sg26
F126027.0
sg27
F201955.0
sg28
I1
sg29
F4484442.0
sg30
I0
sg31
I0
sg32
I0
sg33
I0
ssS'SHARP VICTORIA T'
p335
(dp336
g3
F3136.0
sg4
F187469.0
sg6
I0
sg7
F116337.0
sg8
I00
sg9
F422158.0
sg11
S'vicki.sharp@enron.com'
p337
sg13
g14
sg15
F281073.0
sg17
I0
sg18
F2477.0
sg19
F136.0
sg20
F2401.0
sg21
I0
sg22
F600000.0
sg23
I0
sg24
F494136.0
sg25
I0
sg26
F213063.0
sg27
F248146.0
sg28
I0
sg29
F1576511.0
sg30
I0
sg31
I0
sg32
I0
sg33
I0
ssS'JAEDICKE ROBERT'
p338
(dp339
g3
g36
sg4
g5
sg6
I0
sg7
g45
sg8
I00
sg9
g10
sg11
g37
sg13
F-25000.0
sg15
F431750.0
sg17
I0
sg18
g38
sg19
g39
sg20
g47
sg21
I0
sg22
g48
sg23
I0
sg24
F431750.0
sg25
I0
sg26
F44093.0
sg27
g49
sg28
I0
sg29
F83750.0
sg30
I0
sg31
I0
sg32
I0
sg33
I0
ssS'WINOKUR JR. HERBERT S'
p340
(dp341
g3
g36
sg4
g5
sg6
I0
sg7
F1413.0
sg8
I00
sg9
g10
sg11
g37
sg13
F-25000.0
sg15
g16
sg17
I0
sg18
g38
sg19
g39
sg20
g47
sg21
I0
sg22
g48
sg23
I0
sg24
g108
sg25
I0
sg26
g72
sg27
g49
sg28
I0
sg29
F84992.0
sg30
I0
sg31
I0
sg32
I0
sg33
I0
ssS'BROWN MICHAEL'
p342
(dp343
g3
F1486.0
sg4
g5
sg6
I0
sg7
F49288.0
sg8
I00
sg9
g10
sg11
S'michael.brown@enron.com'
p344
sg13
g14
sg15
g16
sg17
I0
sg18
F761.0
sg19
F41.0
sg20
g47
sg21
I0
sg22
g48
sg23
I0
sg24
g108
sg25
I0
sg26
g72
sg27
g49
sg28
I0
sg29
F49288.0
sg30
I0
sg31
I1
sg32
I0
sg33
I0
ssS'MCCLELLAN GEORGE'
p345
(dp346
g3
F1744.0
sg4
g5
sg6
I1
sg7
F228763.0
sg8
I00
sg9
g10
sg11
S'george.mcclellan@enron.com'
p347
sg13
F-125000.0
sg15
F506765.0
sg17
I0
sg18
F1469.0
sg19
F49.0
sg20
F51587.0
sg21
I0
sg22
F900000.0
sg23
I0
sg24
F947861.0
sg25
I1
sg26
F441096.0
sg27
F263413.0
sg28
I0
sg29
F1318763.0
sg30
I0
sg31
I0
sg32
I0
sg33
I1
ssS'HUGHES JAMES A'
p348
(dp349
g3
F719.0
sg4
g5
sg6
I1
sg7
g45
sg8
I00
sg9
g10
sg11
S'james.hughes@enron.com'
p350
sg13
g14
sg15
F754966.0
sg17
I0
sg18
F589.0
sg19
F34.0
sg20
g47
sg21
I0
sg22
g48
sg23
I0
sg24
F1118394.0
sg25
I0
sg26
F363428.0
sg27
g49
sg28
I0
sg29
g50
sg30
I1
sg31
I1
sg32
I1
sg33
I0
ssS'REYNOLDS LAWRENCE'
p351
(dp352
g3
g36
sg4
F51365.0
sg6
I0
sg7
F8409.0
sg8
I00
sg9
F156250.0
sg11
g37
sg13
F-200000.0
sg15
F4160672.0
sg17
I0
sg18
g38
sg19
g39
sg20
F202052.0
sg21
I0
sg22
F100000.0
sg23
I0
sg24
F4221891.0
sg25
I0
sg26
F201483.0
sg27
F76399.0
sg28
I0
sg29
F394475.0
sg30
I0
sg31
I0
sg32
I0
sg33
I0
ssS'PICKERING MARK R'
p353
(dp354
g3
F898.0
sg4
g5
sg6
I0
sg7
F31653.0
sg8
I00
sg9
g10
sg11
S'mark.pickering@enron.com'
p355
sg13
g14
sg15
F28798.0
sg17
I0
sg18
F728.0
sg19
F67.0
sg20
g47
sg21
I0
sg22
F300000.0
sg23
I1
sg24
F28798.0
sg25
I0
sg26
g72
sg27
F655037.0
sg28
I0
sg29
F1386690.0
sg30
I0
sg31
I0
sg32
I0
sg33
I1
ssS'BHATNAGAR SANJAY'
p356
(dp357
g3
F523.0
sg4
g5
sg6
I0
sg7
g45
sg8
I00
sg9
g10
sg11
S'sanjay.bhatnagar@enron.com'
p358
sg13
g14
sg15
F2604490.0
sg17
I0
sg18
F463.0
sg19
F29.0
sg20
F137864.0
sg21
I0
sg22
g48
sg23
I1
sg24
g108
sg25
I0
sg26
F-2604490.0
sg27
g49
sg28
I0
sg29
F15456290.0
sg30
I0
sg31
I0
sg32
I0
sg33
I0
ssS'CARTER REBECCA C'
p359
(dp360
g3
F312.0
sg4
g5
sg6
I0
sg7
g45
sg8
I00
sg9
F75000.0
sg11
S'rebecca.carter@enron.com'
p361
sg13
F-159792.0
sg15
g16
sg17
I0
sg18
F196.0
sg19
F15.0
sg20
F540.0
sg21
I0
sg22
F300000.0
sg23
I0
sg24
g108
sg25
I0
sg26
F307301.0
sg27
F261809.0
sg28
I0
sg29
F477557.0
sg30
I0
sg31
I0
sg32
I0
sg33
I0
ssS'BUCHANAN HAROLD G'
p362
(dp363
g3
F1088.0
sg4
g5
sg6
I0
sg7
F600.0
sg8
I00
sg9
F304805.0
sg11
S'john.buchanan@enron.com'
p364
sg13
g14
sg15
F825464.0
sg17
I0
sg18
F23.0
sg19
F125.0
sg20
F1215.0
sg21
I0
sg22
F500000.0
sg23
I0
sg24
F1014505.0
sg25
I1
sg26
F189041.0
sg27
F248017.0
sg28
I0
sg29
F1054637.0
sg30
I0
sg31
I1
sg32
I0
sg33
I0
ssS'YEAP SOON'
p365
(dp366
g3
g36
sg4
g5
sg6
I0
sg7
F55097.0
sg8
I00
sg9
g10
sg11
g37
sg13
g14
sg15
F192758.0
sg17
I0
sg18
g38
sg19
g39
sg20
g47
sg21
I0
sg22
g48
sg23
I0
sg24
F192758.0
sg25
I0
sg26
g72
sg27
g49
sg28
I0
sg29
F55097.0
sg30
I0
sg31
I0
sg32
I0
sg33
I0
ssS'MURRAY JULIA H'
p367
(dp368
g3
F2192.0
sg4
g5
sg6
I0
sg7
F57580.0
sg8
I00
sg9
F125000.0
sg11
S'julia.murray@enron.com'
p369
sg13
g14
sg15
F400478.0
sg17
I0
sg18
F395.0
sg19
F45.0
sg20
F330.0
sg21
I0
sg22
F400000.0
sg23
I1
sg24
F597461.0
sg25
I0
sg26
F196983.0
sg27
F229284.0
sg28
I0
sg29
F812194.0
sg30
I0
sg31
I0
sg32
I0
sg33
I0
ssS'GARLAND C KEVIN'
p370
(dp371
g3
F209.0
sg4
g5
sg6
I0
sg7
F48405.0
sg8
I00
sg9
F375304.0
sg11
S'kevin.garland@enron.com'
p372
sg13
g14
sg15
F636246.0
sg17
I0
sg18
F178.0
sg19
F44.0
sg20
F60814.0
sg21
I0
sg22
F850000.0
sg23
I0
sg24
F896153.0
sg25
I0
sg26
F259907.0
sg27
F231946.0
sg28
I1
sg29
F1566469.0
sg30
I1
sg31
I0
sg32
I0
sg33
I1
ssS'DODSON KEITH'
p373
(dp374
g3
F176.0
sg4
g5
sg6
I1
sg7
F28164.0
sg8
I00
sg9
g10
sg11
S'keith.dodson@enron.com'
p375
sg13
g14
sg15
g16
sg17
I0
sg18
F114.0
sg19
F14.0
sg20
F774.0
sg21
I0
sg22
F70000.0
sg23
I0
sg24
g108
sg25
I0
sg26
g72
sg27
F221003.0
sg28
I0
sg29
F319941.0
sg30
I0
sg31
I0
sg32
I0
sg33
I0
ssS'YEAGER F SCOTT'
p376
(dp377
g3
g36
sg4
g5
sg6
I0
sg7
F53947.0
sg8
I01
sg9
g10
sg11
S'scott.yeager@enron.com'
p378
sg13
g14
sg15
F8308552.0
sg17
I0
sg18
g38
sg19
g39
sg20
F147950.0
sg21
I0
sg22
g48
sg23
I0
sg24
F11884758.0
sg25
I0
sg26
F3576206.0
sg27
F158403.0
sg28
I0
sg29
F360300.0
sg30
I0
sg31
I0
sg32
I0
sg33
I0
ssS'HIRKO JOSEPH'
p379
(dp380
g3
g36
sg4
F10259.0
sg6
I0
sg7
F77978.0
sg8
I01
sg9
g10
sg11
S'joe.hirko@enron.com'
p381
sg13
g14
sg15
F30766064.0
sg17
I0
sg18
g38
sg19
g39
sg20
F2856.0
sg21
I0
sg22
g48
sg23
I0
sg24
F30766064.0
sg25
I0
sg26
g72
sg27
g49
sg28
I0
sg29
F91093.0
sg30
I0
sg31
I0
sg32
I0
sg33
I0
ssS'DIETRICH JANET R'
p382
(dp383
g3
F2572.0
sg4
g5
sg6
I2
sg7
F3475.0
sg8
I00
sg9
F556416.0
sg11
S'janet.dietrich@enron.com'
p384
sg13
g14
sg15
F1550019.0
sg17
I0
sg18
F1902.0
sg19
F63.0
sg20
F473.0
sg21
I0
sg22
F600000.0
sg23
I0
sg24
F1865087.0
sg25
I0
sg26
F315068.0
sg27
F250100.0
sg28
I1
sg29
F1410464.0
sg30
I1
sg31
I0
sg32
I0
sg33
I0
ssS'DERRICK JR. JAMES V'
p385
(dp386
g3
F2181.0
sg4
g5
sg6
I0
sg7
F51124.0
sg8
I00
sg9
F484000.0
sg11
S'james.derrick@enron.com'
p387
sg13
F-1284000.0
sg15
F8831913.0
sg17
I0
sg18
F1401.0
sg19
F909.0
sg20
F7482.0
sg21
I0
sg22
F800000.0
sg23
I1
sg24
F8831913.0
sg25
I0
sg26
F1787380.0
sg27
F492375.0
sg28
I0
sg29
F550981.0
sg30
I0
sg31
I0
sg32
I0
sg33
I0
ssS'FREVERT MARK A'
p388
(dp389
g3
F3275.0
sg4
F6426990.0
sg6
I0
sg7
F86987.0
sg8
I00
sg9
F1617011.0
sg11
S'mark.frevert@enron.com'
p390
sg13
F-3367011.0
sg15
F10433518.0
sg17
I0
sg18
F2979.0
sg19
F21.0
sg20
F7427621.0
sg21
I0
sg22
F2000000.0
sg23
I0
sg24
F14622185.0
sg25
I1
sg26
F4188667.0
sg27
F1060932.0
sg28
I0
sg29
F17252530.0
sg30
I0
sg31
I0
sg32
I0
sg33
I1
ssS'PAI LOU L'
p391
(dp392
g3
g36
sg4
g5
sg6
I0
sg7
F32047.0
sg8
I00
sg9
g10
sg11
S'lou.pai@enron.com'
p393
sg13
g14
sg15
F15364167.0
sg17
I0
sg18
g38
sg19
g39
sg20
F1829457.0
sg21
I0
sg22
F1000000.0
sg23
I0
sg24
F23817930.0
sg25
I0
sg26
F8453763.0
sg27
F261879.0
sg28
I0
sg29
F3123383.0
sg30
I0
sg31
I0
sg32
I0
sg33
I0
ssS'HAYSLETT RODERICK J'
p394
(dp395
g3
F2649.0
sg4
g5
sg6
I0
sg7
g45
sg8
I00
sg9
g10
sg11
S'rod.hayslett@enron.com'
p396
sg13
g14
sg15
g16
sg17
I0
sg18
F571.0
sg19
F1061.0
sg20
g47
sg21
I0
sg22
g48
sg23
I0
sg24
F346663.0
sg25
I0
sg26
F346663.0
sg27
g49
sg28
I0
sg29
g50
sg30
I0
sg31
I0
sg32
I0
sg33
I0
ssS'BAY FRANKLIN R'
p397
(dp398
g3
g36
sg4
F260455.0
sg6
I0
sg7
F129142.0
sg8
I00
sg9
g10
sg11
S'frank.bay@enron.com'
p399
sg13
F-201641.0
sg15
g16
sg17
I0
sg18
g38
sg19
g39
sg20
F69.0
sg21
I0
sg22
F400000.0
sg23
I0
sg24
F63014.0
sg25
I0
sg26
F145796.0
sg27
F239671.0
sg28
I0
sg29
F827696.0
sg30
I0
sg31
I0
sg32
I0
sg33
I0
ssS'MCCARTY DANNY J'
p400
(dp401
g3
F1433.0
sg4
g5
sg6
I0
sg7
g45
sg8
I00
sg9
g10
sg11
S'danny.mccarty@enron.com'
p402
sg13
g14
sg15
F664375.0
sg17
I1
sg18
F508.0
sg19
F215.0
sg20
g47
sg21
I0
sg22
g48
sg23
I0
sg24
F758931.0
sg25
I0
sg26
F94556.0
sg27
g49
sg28
I0
sg29
g50
sg30
I0
sg31
I0
sg32
I0
sg33
I0
ssS'FUGH JOHN L'
p403
(dp404
g3
g36
sg4
F50591.0
sg6
I0
sg7
g45
sg8
I00
sg9
g10
sg11
g37
sg13
g14
sg15
F176378.0
sg17
I0
sg18
g38
sg19
g39
sg20
g47
sg21
I0
sg22
g48
sg23
I0
sg24
F176378.0
sg25
I0
sg26
g72
sg27
g49
sg28
I0
sg29
F50591.0
sg30
I0
sg31
I0
sg32
I0
sg33
I0
ssS'SCRIMSHAW MATTHEW'
p405
(dp406
g3
g36
sg4
g5
sg6
I0
sg7
g45
sg8
I00
sg9
g10
sg11
S'matthew.scrimshaw@enron.com'
p407
sg13
g14
sg15
F759557.0
sg17
I0
sg18
g38
sg19
g39
sg20
g47
sg21
I0
sg22
g48
sg23
I0
sg24
F759557.0
sg25
I0
sg26
g72
sg27
g49
sg28
I0
sg29
g50
sg30
I0
sg31
I0
sg32
I0
sg33
I0
ssS'KOENIG MARK E'
p408
(dp409
g3
F2374.0
sg4
g5
sg6
I0
sg7
F127017.0
sg8
I01
sg9
F300000.0
sg11
S'mark.koenig@enron.com'
p410
sg13
g14
sg15
F671737.0
sg17
I0
sg18
F2271.0
sg19
F61.0
sg20
F150458.0
sg21
I0
sg22
F700000.0
sg23
I0
sg24
F1920055.0
sg25
I1
sg26
F1248318.0
sg27
F309946.0
sg28
I1
sg29
F1587421.0
sg30
I0
sg31
I0
sg32
I0
sg33
I1
ssS'SAVAGE FRANK'
p411
(dp412
g3
g36
sg4
g5
sg6
I0
sg7
g45
sg8
I00
sg9
g10
sg11
g37
sg13
F-121284.0
sg15
g16
sg17
I0
sg18
g38
sg19
g39
sg20
g47
sg21
I0
sg22
g48
sg23
I0
sg24
g108
sg25
I0
sg26
g72
sg27
g49
sg28
I0
sg29
F3750.0
sg30
I0
sg31
I0
sg32
I0
sg33
I0
ssS'IZZO LAWRENCE L'
p413
(dp414
g3
F496.0
sg4
g5
sg6
I0
sg7
F28093.0
sg8
I00
sg9
F312500.0
sg11
S'larry.izzo@enron.com'
p415
sg13
g14
sg15
F2165172.0
sg17
I0
sg18
F437.0
sg19
F19.0
sg20
F1553729.0
sg21
I0
sg22
g48
sg23
I1
sg24
F5819980.0
sg25
I0
sg26
F3654808.0
sg27
F85274.0
sg28
I0
sg29
F1979596.0
sg30
I0
sg31
I1
sg32
I0
sg33
I0
ssS'TILNEY ELIZABETH A'
p416
(dp417
g3
F460.0
sg4
g5
sg6
I0
sg7
g45
sg8
I00
sg9
F275000.0
sg11
S'elizabeth.tilney@enron.com'
p418
sg13
F-575000.0
sg15
F591250.0
sg17
I0
sg18
F379.0
sg19
F19.0
sg20
F152055.0
sg21
I0
sg22
F300000.0
sg23
I0
sg24
F1168042.0
sg25
I0
sg26
F576792.0
sg27
F247338.0
sg28
I0
sg29
F399393.0
sg30
I0
sg31
I0
sg32
I0
sg33
I0
ssS'MARTIN AMANDA K'
p419
(dp420
g3
F1522.0
sg4
F85430.0
sg6
I0
sg7
F8211.0
sg8
I00
sg9
F5145434.0
sg11
S'a..martin@enron.com'
p421
sg13
g14
sg15
F2070306.0
sg17
I0
sg18
F477.0
sg19
F230.0
sg20
F2818454.0
sg21
I0
sg22
g48
sg23
I0
sg24
F2070306.0
sg25
I0
sg26
g72
sg27
F349487.0
sg28
I1
sg29
F8407016.0
sg30
I0
sg31
I1
sg32
I0
sg33
I1
ssS'BUY RICHARD B'
p422
(dp423
g3
F3523.0
sg4
F649584.0
sg6
I0
sg7
g45
sg8
I00
sg9
F769862.0
sg11
S'rick.buy@enron.com'
p424
sg13
F-694862.0
sg15
F2542813.0
sg17
I1
sg18
F2333.0
sg19
F1053.0
sg20
F400572.0
sg21
I0
sg22
F900000.0
sg23
I0
sg24
F3444470.0
sg25
I0
sg26
F901657.0
sg27
F330546.0
sg28
I0
sg29
F2355702.0
sg30
I0
sg31
I0
sg32
I0
sg33
I0
ssS'GRAMM WENDY L'
p425
(dp426
g3
g36
sg4
g5
sg6
I0
sg7
g45
sg8
I00
sg9
g10
sg11
g37
sg13
g14
sg15
g16
sg17
I0
sg18
g38
sg19
g39
sg20
g47
sg21
I0
sg22
g48
sg23
I0
sg24
g108
sg25
I0
sg26
g72
sg27
g49
sg28
I0
sg29
F119292.0
sg30
I0
sg31
I0
sg32
I0
sg33
I0
ssS'CAUSEY RICHARD A'
p427
(dp428
g3
F1892.0
sg4
g5
sg6
I0
sg7
F30674.0
sg8
I01
sg9
F350000.0
sg11
S'richard.causey@enron.com'
p429
sg13
F-235000.0
sg15
g16
sg17
I0
sg18
F1585.0
sg19
F49.0
sg20
F307895.0
sg21
I2
sg22
F1000000.0
sg23
I0
sg24
F2502063.0
sg25
I0
sg26
F2502063.0
sg27
F415189.0
sg28
I0
sg29
F1868758.0
sg30
I0
sg31
I0
sg32
I2
sg33
I0
ssS'TAYLOR MITCHELL S'
p430
(dp431
g3
F533.0
sg4
F227449.0
sg6
I0
sg7
g45
sg8
I00
sg9
g10
sg11
S'mitchell.taylor@enron.com'
p432
sg13
g14
sg15
F3181250.0
sg17
I0
sg18
F300.0
sg19
F29.0
sg20
g47
sg21
I0
sg22
F600000.0
sg23
I0
sg24
F3745048.0
sg25
I0
sg26
F563798.0
sg27
F265214.0
sg28
I0
sg29
F1092663.0
sg30
I0
sg31
I0
sg32
I0
sg33
I0
ssS'DONAHUE JR JEFFREY M'
p433
(dp434
g3
F865.0
sg4
g5
sg6
I0
sg7
F96268.0
sg8
I00
sg9
g10
sg11
S'jeff.donahue@enron.com'
p435
sg13
F-300000.0
sg15
F765920.0
sg17
I2
sg18
F772.0
sg19
F22.0
sg20
F891.0
sg21
I0
sg22
F800000.0
sg23
I0
sg24
F1080988.0
sg25
I0
sg26
F315068.0
sg27
F278601.0
sg28
I1
sg29
F875760.0
sg30
I0
sg31
I0
sg32
I0
sg33
I0
ssS'GLISAN JR BEN F'
p436
(dp437
g3
F873.0
sg4
g5
sg6
I2
sg7
F125978.0
sg8
I01
sg9
F71023.0
sg11
S'ben.glisan@enron.com'
p438
sg13
g14
sg15
F384728.0
sg17
I0
sg18
F874.0
sg19
F16.0
sg20
F200308.0
sg21
I2
sg22
F600000.0
sg23
I0
sg24
F778546.0
sg25
I0
sg26
F393818.0
sg27
F274975.0
sg28
I0
sg29
F1272284.0
sg30
I0
sg31
I0
sg32
I1
sg33
I0
ss.